(lp1
ccopy_reg
_reconstructor
p2
(cutility.Solution
Solution
p3
c__builtin__
object
p4
NtRp5
(dp6
S'warm_start'
p7
NsS'objs'
p8
(F11139.26466616654
F-210.65266736905323
tp9
sS'hash'
p10
(S'D'
S'A'
S'D'
S'A'
S'V'
S'A'
S'M'
S'T'
S'T'
S'K'
S'V'
S'D'
S'K'
S'S'
S'E'
S'V'
S'C'
S'K'
S'G'
S'F'
S'A'
S'T'
S'A'
S'Q'
S'K'
S'D'
S'V'
S'T'
S'A'
S'V'
S'K'
S'G'
S'G'
S'G'
S'E'
S'T'
S'E'
S'Q'
S'K'
S'L'
S'D'
S'T'
S'M'
S'Y'
S'D'
S'A'
S'R'
S'A'
S'D'
S'K'
S'A'
tp11
sS'vars'
p12
(dp13
S'x(39,A)'
p14
F1
sS'x(43,G)'
p15
F1
sS'x(14,D)'
p16
F1
sS'x(10,A)'
p17
F1
sS'x(3,Q)'
p18
F1
sS'x(51,D)'
p19
F1
sS'x(25,D)'
p20
F1
sS'x(24,K)'
p21
F1
sS'x(9,A)'
p22
F1
sS'x(22,S)'
p23
F1
sS'x(15,T)'
p24
F1
sS'x(36,D)'
p25
F1
sS'x(29,E)'
p26
F1
sS'x(48,Q)'
p27
F1
sS'x(27,V)'
p28
F1
sS'x(4,T)'
p29
F1
sS'x(18,D)'
p30
F1
sS'x(47,E)'
p31
F1
sS'x(12,A)'
p32
F1
sS'x(32,V)'
p33
F1
sS'x(7,D)'
p34
F1
sS'x(16,V)'
p35
F1
sS'y(B1501,33)'
p36
F0.96403746247385214
sS'x(21,C)'
p37
F1
sS'x(28,K)'
p38
F1
sS'x(20,G)'
p39
F1
sS'x(33,G)'
p40
F1
sS'x(11,A)'
p41
F1
sS'x(1,M)'
p42
F1
sS'x(30,K)'
p43
F1
sS'x(38,T)'
p44
F1
sS'x(19,T)'
p45
F1
sS'x(35,K)'
p46
F1
sS'x(46,K)'
p47
F1
sS'x(31,V)'
p48
F1
sS'x(44,E)'
p49
F1
sS'x(2,F)'
p50
F1
sS'x(40,D)'
p51
F1
sS'x(45,T)'
p52
F1
sS'x(49,M)'
p53
F1
sS'x(13,K)'
p54
F1
sS'x(41,Y)'
p55
F1
sS'x(5,A)'
p56
F1
sS'x(17,V)'
p57
F1
sS'x(6,A)'
p58
F1
sS'y(B1501,41)'
p59
F0.9314578341784846
sS'x(23,A)'
p60
F1
sS'x(37,A)'
p61
F1
sS'x(42,L)'
p62
F1
sS'x(8,K)'
p63
F1
sS'x(34,G)'
p64
F1
sS'x(50,R)'
p65
F1
sS'x(26,T)'
p66
F1
ssbag2
(g3
g4
NtRp67
(dp68
g7
Nsg8
(F11754.020977752067
F-217.24453913135221
tp69
sg10
(S'D'
S'A'
S'D'
S'A'
S'V'
S'A'
S'M'
S'T'
S'T'
S'K'
S'V'
S'L'
S'D'
S'K'
S'E'
S'K'
S'C'
S'D'
S'F'
S'A'
S'A'
S'T'
S'A'
S'Q'
S'A'
S'K'
S'D'
S'V'
S'A'
S'V'
S'G'
S'K'
S'G'
S'G'
S'E'
S'K'
S'T'
S'E'
S'Q'
S'L'
S'D'
S'M'
S'Y'
S'K'
S'D'
S'A'
S'R'
S'A'
S'D'
S'K'
S'A'
tp70
sg12
(dp71
S'x(39,A)'
p72
F1
sS'x(43,G)'
p73
F1
sS'x(14,D)'
p74
F1
sS'x(10,A)'
p75
F1
sS'x(3,Q)'
p76
F1
sS'x(17,V)'
p77
F1
sS'x(51,D)'
p78
F1
sS'x(25,D)'
p79
F1
sS'x(24,K)'
p80
F1
sS'x(9,A)'
p81
F1
sS'x(6,A)'
p82
F1
sS'x(46,K)'
p83
F1
sS'x(36,D)'
p84
F1
sS'x(29,E)'
p85
F1
sS'x(32,V)'
p86
F1
sS'x(28,K)'
p87
F1
sS'x(4,T)'
p88
F1
sS'x(18,D)'
p89
F1
sS'x(47,E)'
p90
F1
sS'x(12,A)'
p91
F1
sS'x(48,Q)'
p92
F1
sS'x(7,D)'
p93
F1
sS'x(16,V)'
p94
F1
sS'x(21,C)'
p95
F1
sS'x(33,G)'
p96
F1
sS'x(11,A)'
p97
F1
sS'x(1,M)'
p98
F1
sS'x(30,K)'
p99
F1
sS'x(19,T)'
p100
F1
sS'x(35,K)'
p101
F1
sS'x(49,M)'
p102
F1
sS'x(31,V)'
p103
F1
sS'x(44,E)'
p104
F1
sS'x(2,F)'
p105
F1
sS'x(15,T)'
p106
F1
sS'x(40,D)'
p107
F1
sS'x(38,G)'
p108
F1
sS'x(22,D)'
p109
F1
sS'x(13,K)'
p110
F1
sS'x(41,Y)'
p111
F1
sS'x(5,A)'
p112
F1
sS'x(45,K)'
p113
F1
sS'x(20,L)'
p114
F1
sS'x(34,A)'
p115
F1
sS'x(50,R)'
p116
F1
sS'x(23,A)'
p117
F1
sS'x(37,A)'
p118
F1
sS'x(42,L)'
p119
F1
sS'x(8,K)'
p120
F1
sS'x(27,A)'
p121
F1
sS'x(26,T)'
p122
F1
ssbag2
(g3
g4
NtRp123
(dp124
g7
Nsg8
(F12419.845973452551
F-218.91158989837777
tp125
sg10
(S'D'
S'D'
S'A'
S'V'
S'R'
S'A'
S'M'
S'T'
S'T'
S'K'
S'V'
S'L'
S'D'
S'K'
S'E'
S'K'
S'C'
S'D'
S'F'
S'A'
S'A'
S'T'
S'A'
S'Q'
S'A'
S'K'
S'D'
S'V'
S'T'
S'A'
S'V'
S'K'
S'G'
S'G'
S'E'
S'K'
S'T'
S'E'
S'Q'
S'L'
S'D'
S'T'
S'M'
S'Y'
S'D'
S'A'
S'R'
S'A'
S'D'
S'K'
S'L'
tp126
sg12
(dp127
S'x(39,A)'
p128
F0.99999999431432707
sS'x(43,G)'
p129
F1.0000001308566009
sS'x(14,D)'
p130
F1.0000000085285095
sS'x(3,Q)'
p131
F1
sS'x(17,V)'
p132
F0.99999999431432707
sS'x(51,D)'
p133
F1
sS'x(25,D)'
p134
F1
sS'x(24,K)'
p135
F1
sS'x(6,A)'
p136
F1.0000000028428364
sS'x(46,K)'
p137
F0.99999998373029686
sS'x(36,D)'
p138
F0.99999999715716348
sS'x(29,E)'
p139
F1.0000000337043125
sS'x(48,Q)'
p140
F1
sS'x(28,K)'
p141
F0.99999999289290886
sS'x(4,T)'
p142
F0.99999989308313197
sS'x(9,L)'
p143
F1
sS'x(18,D)'
p144
F1
sS'x(47,E)'
p145
F1
sS'x(12,A)'
p146
F1
sS'x(32,V)'
p147
F1.0000000085285095
sS'x(7,D)'
p148
F0.99999998862865402
sS'x(16,V)'
p149
F1
sS'x(21,C)'
p150
F0.99999998152156289
sS'x(10,R)'
p151
F0.99999999431432707
sS'x(33,G)'
p152
F1
sS'x(11,A)'
p153
F1
sS'x(1,M)'
p154
F1
sS'x(30,K)'
p155
F1
sS'x(38,T)'
p156
F1
sS'x(19,T)'
p157
F1
sS'x(35,K)'
p158
F0.99999999147149055
sS'x(49,M)'
p159
F1
sS'x(31,V)'
p160
F1.0000000077411937
sS'x(44,E)'
p161
F1
sS'x(2,F)'
p162
F1
sS'x(15,T)'
p163
F0.99999999147149055
sS'x(40,D)'
p164
F1
sS'x(45,T)'
p165
F1
sS'x(22,D)'
p166
F0.99999999431432707
sS'x(13,K)'
p167
F0.99999999147149055
sS'x(41,Y)'
p168
F1.0000000085285095
sS'x(5,A)'
p169
F1
sS'x(27,A)'
p170
F1
sS'x(20,L)'
p171
F1
sS'x(34,A)'
p172
F1.0000000162697031
sS'y(B1501,41)'
p173
F0.93145780254792143
sS'x(23,A)'
p174
F0.99999999431432707
sS'x(37,A)'
p175
F0.99999999147149055
sS'x(42,L)'
p176
F1
sS'x(8,K)'
p177
F1
sS'x(50,R)'
p178
F1
sS'x(26,T)'
p179
F1
ssbag2
(g3
g4
NtRp180
(dp181
g7
Nsg8
(F12419.846973452553
F-218.91159072376269
tp182
sg10
(S'D'
S'D'
S'A'
S'V'
S'R'
S'A'
S'M'
S'T'
S'T'
S'K'
S'V'
S'L'
S'D'
S'K'
S'E'
S'K'
S'C'
S'D'
S'F'
S'A'
S'A'
S'T'
S'A'
S'Q'
S'A'
S'K'
S'D'
S'V'
S'T'
S'A'
S'V'
S'K'
S'G'
S'G'
S'E'
S'K'
S'T'
S'E'
S'Q'
S'L'
S'D'
S'T'
S'M'
S'Y'
S'D'
S'A'
S'R'
S'A'
S'D'
S'K'
S'L'
tp183
sg12
(dp184
S'x(39,A)'
p185
F0.99999999868910361
sS'x(43,G)'
p186
F1
sS'x(14,D)'
p187
F1
sS'x(3,Q)'
p188
F1
sS'x(17,V)'
p189
F0.99999999639503501
sS'x(51,D)'
p190
F1
sS'x(25,D)'
p191
F1
sS'x(24,K)'
p192
F0.99999999934455186
sS'x(6,A)'
p193
F1
sS'x(46,K)'
p194
F1
sS'x(36,D)'
p195
F1.0000000042604131
sS'x(29,E)'
p196
F1.0000000022940687
sS'x(48,Q)'
p197
F1
sS'x(28,K)'
p198
F1.0000000009831722
sS'x(4,T)'
p199
F0.99999999570189724
sS'x(9,L)'
p200
F1.0000000088287826
sS'x(18,D)'
p201
F0.99999999344551826
sS'x(47,E)'
p202
F0.99999999868910361
sS'x(12,A)'
p203
F1.0000000006554481
sS'x(32,V)'
p204
F1
sS'x(7,D)'
p205
F1.0000000016386204
sS'x(16,V)'
p206
F0.99999999573958687
sS'x(21,C)'
p207
F0.99999999311779419
sS'x(10,R)'
p208
F0.99999999049600141
sS'x(33,G)'
p209
F0.99999999639503501
sS'x(11,A)'
p210
F1
sS'x(1,M)'
p211
F1
sS'x(30,K)'
p212
F1
sS'x(38,T)'
p213
F0.9999999969940393
sS'x(19,T)'
p214
F0.99999999934455186
sS'x(35,K)'
p215
F1.0000000042604131
sS'x(49,M)'
p216
F1
sS'x(31,V)'
p217
F0.99999999639503501
sS'x(44,E)'
p218
F1.0000000022940687
sS'x(2,F)'
p219
F1
sS'x(15,T)'
p220
F1.0000000088485503
sS'x(40,D)'
p221
F0.9999999977059314
sS'x(45,T)'
p222
F1.0000000042604131
sS'x(22,D)'
p223
F0.99999999606731094
sS'x(13,K)'
p224
F1.0000000006554481
sS'x(41,Y)'
p225
F0.99999999934455186
sS'x(5,A)'
p226
F0.99999999934455186
sS'x(27,A)'
p227
F1.0000000049535509
sS'x(20,L)'
p228
F1.0000000088287826
sS'x(34,A)'
p229
F1
sS'y(B1501,41)'
p230
F0.93145785217848243
sS'x(23,A)'
p231
F0.9999999954118628
sS'x(37,A)'
p232
F0.99999999439100096
sS'x(42,L)'
p233
F1.0000000189080755
sS'x(8,K)'
p234
F1
sS'x(50,R)'
p235
F1
sS'x(26,T)'
p236
F0.99999999344551826
ssbag2
(g3
g4
NtRp237
(dp238
g7
Nsg8
(F12453.575822178669
F-219.84475189213333
tp239
sg10
(S'D'
S'A'
S'D'
S'A'
S'V'
S'A'
S'M'
S'T'
S'T'
S'K'
S'V'
S'L'
S'D'
S'K'
S'E'
S'K'
S'C'
S'D'
S'F'
S'A'
S'A'
S'T'
S'A'
S'Q'
S'A'
S'K'
S'D'
S'V'
S'T'
S'A'
S'V'
S'K'
S'G'
S'G'
S'E'
S'K'
S'A'
S'T'
S'E'
S'Q'
S'L'
S'D'
S'M'
S'Y'
S'D'
S'A'
S'R'
S'A'
S'D'
S'K'
S'A'
tp240
sg12
(dp241
S'x(39,A)'
p242
F1.0000000025909648
sS'x(43,G)'
p243
F1
sS'x(14,D)'
p244
F1
sS'x(10,A)'
p245
F1.0000000388644725
sS'x(3,Q)'
p246
F1
sS'x(17,V)'
p247
F1.0000000155457891
sS'x(51,D)'
p248
F1
sS'x(25,D)'
p249
F1
sS'x(24,K)'
p250
F1
sS'x(9,A)'
p251
F1
sS'x(6,A)'
p252
F1.0000000051819298
sS'x(46,K)'
p253
F1
sS'x(36,D)'
p254
F1.0000000025909648
sS'x(29,E)'
p255
F1.0000000025909648
sS'x(32,V)'
p256
F1.0000000077728946
sS'x(28,K)'
p257
F1.0000000103638593
sS'x(45,A)'
p258
F1.0000000025909648
sS'x(4,T)'
p259
F1.0000000103638593
sS'x(18,D)'
p260
F1.0000000077728946
sS'x(47,E)'
p261
F1.0000000025909648
sS'x(12,A)'
p262
F1.0000000025909648
sS'x(48,Q)'
p263
F1
sS'x(7,D)'
p264
F1.0000000077728946
sS'x(16,V)'
p265
F1.0000000259096484
sS'x(21,C)'
p266
F1.0000000207277187
sS'x(11,A)'
p267
F1.0000000077728946
sS'x(1,M)'
p268
F1
sS'x(30,K)'
p269
F1
sS'x(38,T)'
p270
F1.0000000181367539
sS'x(19,T)'
p271
F1.0000000103638593
sS'x(35,K)'
p272
F1.0000000025909648
sS'x(49,M)'
p273
F1
sS'x(31,V)'
p274
F1.0000000129548241
sS'x(44,E)'
p275
F1.0000000155457891
sS'x(2,F)'
p276
F1
sS'x(15,T)'
p277
F1.0000000051819298
sS'x(40,D)'
p278
F1.0000000103638593
sS'x(22,D)'
p279
F1
sS'x(13,K)'
p280
F1
sS'x(41,Y)'
p281
F0.99999967872036066
sS'x(5,A)'
p282
F1.0000000025909648
sS'x(27,A)'
p283
F0.99999999222710545
sS'x(20,L)'
p284
F1
sS'x(34,A)'
p285
F1.0000000233186834
sS'x(33,G)'
p286
F1.0000000129548241
sS'x(23,A)'
p287
F1.0000000025909648
sS'x(37,A)'
p288
F1.0000000077728946
sS'x(42,L)'
p289
F1
sS'x(8,K)'
p290
F1
sS'x(50,R)'
p291
F1
sS'x(26,T)'
p292
F1.0000000103638593
ssbag2
(g3
g4
NtRp293
(dp294
g7
Nsg8
(F12453.576822178669
F-219.84475272166307
tp295
sg10
(S'D'
S'A'
S'D'
S'A'
S'V'
S'A'
S'M'
S'T'
S'T'
S'K'
S'V'
S'L'
S'D'
S'K'
S'E'
S'K'
S'C'
S'D'
S'F'
S'A'
S'A'
S'T'
S'A'
S'Q'
S'A'
S'K'
S'D'
S'V'
S'T'
S'A'
S'V'
S'K'
S'G'
S'G'
S'E'
S'K'
S'A'
S'T'
S'E'
S'Q'
S'L'
S'D'
S'M'
S'Y'
S'D'
S'A'
S'R'
S'A'
S'D'
S'K'
S'A'
tp296
sg12
(dp297
S'x(39,A)'
p298
F1
sS'x(43,G)'
p299
F1
sS'x(14,D)'
p300
F1
sS'x(10,A)'
p301
F1
sS'x(3,Q)'
p302
F1
sS'x(17,V)'
p303
F1
sS'x(51,D)'
p304
F1
sS'x(25,D)'
p305
F1
sS'x(24,K)'
p306
F1
sS'x(9,A)'
p307
F1
sS'x(6,A)'
p308
F1
sS'x(46,K)'
p309
F1
sS'x(36,D)'
p310
F1
sS'x(29,E)'
p311
F1
sS'x(32,V)'
p312
F1
sS'x(28,K)'
p313
F1
sS'x(45,A)'
p314
F1
sS'x(4,T)'
p315
F1
sS'x(18,D)'
p316
F1
sS'x(47,E)'
p317
F1
sS'x(12,A)'
p318
F1
sS'x(48,Q)'
p319
F1
sS'x(7,D)'
p320
F1
sS'x(16,V)'
p321
F1
sS'x(21,C)'
p322
F1
sS'x(11,A)'
p323
F1
sS'x(1,M)'
p324
F1
sS'x(30,K)'
p325
F1
sS'x(38,T)'
p326
F1
sS'x(19,T)'
p327
F1
sS'x(35,K)'
p328
F1
sS'x(49,M)'
p329
F1
sS'x(31,V)'
p330
F1
sS'x(44,E)'
p331
F1
sS'x(2,F)'
p332
F1
sS'x(15,T)'
p333
F1
sS'x(40,D)'
p334
F1
sS'x(22,D)'
p335
F1
sS'x(13,K)'
p336
F1
sS'x(41,Y)'
p337
F1
sS'x(5,A)'
p338
F1
sS'x(27,A)'
p339
F1
sS'x(20,L)'
p340
F1
sS'x(34,A)'
p341
F1
sS'x(33,G)'
p342
F1
sS'x(23,A)'
p343
F1
sS'x(37,A)'
p344
F1
sS'x(42,L)'
p345
F1
sS'x(8,K)'
p346
F1
sS'x(50,R)'
p347
F1
sS'x(26,T)'
p348
F1
ssbag2
(g3
g4
NtRp349
(dp350
g7
Nsg8
(F12975.478051095783
F-220.51179059961578
tp351
sg10
(S'D'
S'D'
S'A'
S'V'
S'R'
S'A'
S'M'
S'T'
S'T'
S'K'
S'V'
S'L'
S'D'
S'K'
S'E'
S'K'
S'C'
S'D'
S'F'
S'A'
S'A'
S'T'
S'A'
S'Q'
S'A'
S'K'
S'D'
S'V'
S'T'
S'A'
S'V'
S'K'
S'G'
S'G'
S'E'
S'K'
S'A'
S'T'
S'E'
S'Q'
S'L'
S'D'
S'M'
S'Y'
S'D'
S'A'
S'R'
S'A'
S'D'
S'K'
S'L'
tp352
sg12
(dp353
S'x(39,A)'
p354
F1
sS'x(43,G)'
p355
F1
sS'x(14,D)'
p356
F1
sS'x(3,Q)'
p357
F1
sS'x(17,V)'
p358
F1
sS'x(51,D)'
p359
F1
sS'x(25,D)'
p360
F1
sS'x(24,K)'
p361
F1
sS'x(6,A)'
p362
F1
sS'x(46,K)'
p363
F1
sS'x(36,D)'
p364
F1
sS'x(29,E)'
p365
F1
sS'x(32,V)'
p366
F1
sS'x(28,K)'
p367
F1
sS'x(45,A)'
p368
F1
sS'x(4,T)'
p369
F1
sS'x(9,L)'
p370
F1
sS'x(18,D)'
p371
F1
sS'x(47,E)'
p372
F1
sS'x(12,A)'
p373
F1
sS'x(48,Q)'
p374
F1
sS'x(7,D)'
p375
F1
sS'x(16,V)'
p376
F1
sS'x(21,C)'
p377
F1
sS'x(10,R)'
p378
F1
sS'x(11,A)'
p379
F1
sS'x(1,M)'
p380
F1
sS'x(30,K)'
p381
F1
sS'x(38,T)'
p382
F1
sS'x(19,T)'
p383
F1
sS'x(35,K)'
p384
F1
sS'x(49,M)'
p385
F1
sS'x(31,V)'
p386
F1
sS'x(44,E)'
p387
F1
sS'x(2,F)'
p388
F1
sS'x(15,T)'
p389
F1
sS'x(40,D)'
p390
F1
sS'x(22,D)'
p391
F1
sS'x(13,K)'
p392
F1
sS'x(41,Y)'
p393
F1
sS'x(5,A)'
p394
F1
sS'x(27,A)'
p395
F1
sS'x(20,L)'
p396
F1
sS'x(34,A)'
p397
F1
sS'x(33,G)'
p398
F1
sS'x(23,A)'
p399
F1
sS'x(37,A)'
p400
F1
sS'x(42,L)'
p401
F1
sS'x(8,K)'
p402
F1
sS'x(50,R)'
p403
F1
sS'x(26,T)'
p404
F1
ssbag2
(g3
g4
NtRp405
(dp406
g7
Nsg8
(F12975.479051095783
F-220.51179059961578
tp407
sg10
(S'D'
S'D'
S'A'
S'V'
S'R'
S'A'
S'M'
S'T'
S'T'
S'K'
S'V'
S'L'
S'D'
S'K'
S'E'
S'K'
S'C'
S'D'
S'F'
S'A'
S'A'
S'T'
S'A'
S'Q'
S'A'
S'K'
S'D'
S'V'
S'T'
S'A'
S'V'
S'K'
S'G'
S'G'
S'E'
S'K'
S'A'
S'T'
S'E'
S'Q'
S'L'
S'D'
S'M'
S'Y'
S'D'
S'A'
S'R'
S'A'
S'D'
S'K'
S'L'
tp408
sg12
(dp409
S'x(39,A)'
p410
F1
sS'x(43,G)'
p411
F1
sS'x(14,D)'
p412
F1
sS'x(3,Q)'
p413
F1
sS'x(17,V)'
p414
F1
sS'x(51,D)'
p415
F1
sS'x(25,D)'
p416
F1
sS'x(24,K)'
p417
F1
sS'x(6,A)'
p418
F1
sS'x(46,K)'
p419
F1
sS'x(36,D)'
p420
F1
sS'x(29,E)'
p421
F1
sS'x(32,V)'
p422
F1
sS'x(28,K)'
p423
F1
sS'x(45,A)'
p424
F1
sS'x(4,T)'
p425
F1
sS'x(9,L)'
p426
F1
sS'x(18,D)'
p427
F1
sS'x(47,E)'
p428
F1
sS'x(12,A)'
p429
F1
sS'x(48,Q)'
p430
F1
sS'x(7,D)'
p431
F1
sS'x(16,V)'
p432
F1
sS'x(21,C)'
p433
F1
sS'x(10,R)'
p434
F1
sS'x(11,A)'
p435
F1
sS'x(1,M)'
p436
F1
sS'x(30,K)'
p437
F1
sS'x(38,T)'
p438
F1
sS'x(19,T)'
p439
F1
sS'x(35,K)'
p440
F1
sS'x(49,M)'
p441
F1
sS'x(31,V)'
p442
F1
sS'x(44,E)'
p443
F1
sS'x(2,F)'
p444
F1
sS'x(15,T)'
p445
F1
sS'x(40,D)'
p446
F1
sS'x(22,D)'
p447
F1
sS'x(13,K)'
p448
F1
sS'x(41,Y)'
p449
F1
sS'x(5,A)'
p450
F1
sS'x(27,A)'
p451
F1
sS'x(20,L)'
p452
F1
sS'x(34,A)'
p453
F1
sS'x(33,G)'
p454
F1
sS'x(23,A)'
p455
F1
sS'x(37,A)'
p456
F1
sS'x(42,L)'
p457
F1
sS'x(8,K)'
p458
F1
sS'x(50,R)'
p459
F1
sS'x(26,T)'
p460
F1
ssbag2
(g3
g4
NtRp461
(dp462
g7
Nsg8
(F13301.298960246282
F-221.65133653880793
tp463
sg10
(S'D'
S'A'
S'D'
S'A'
S'V'
S'A'
S'M'
S'T'
S'T'
S'K'
S'V'
S'L'
S'D'
S'K'
S'E'
S'K'
S'C'
S'T'
S'D'
S'F'
S'A'
S'T'
S'A'
S'Q'
S'A'
S'K'
S'D'
S'V'
S'T'
S'A'
S'V'
S'K'
S'G'
S'G'
S'E'
S'K'
S'A'
S'T'
S'E'
S'Q'
S'L'
S'D'
S'M'
S'Y'
S'D'
S'A'
S'R'
S'A'
S'D'
S'K'
S'A'
tp464
sg12
(dp465
S'x(39,A)'
p466
F1
sS'x(43,G)'
p467
F1
sS'x(14,D)'
p468
F1
sS'x(10,A)'
p469
F1
sS'x(3,Q)'
p470
F1
sS'x(17,V)'
p471
F1
sS'x(51,D)'
p472
F1
sS'x(25,D)'
p473
F1
sS'x(24,K)'
p474
F1
sS'x(9,A)'
p475
F1
sS'x(6,A)'
p476
F1
sS'x(46,K)'
p477
F1
sS'x(36,D)'
p478
F1
sS'x(29,E)'
p479
F1
sS'x(32,V)'
p480
F1
sS'x(28,K)'
p481
F1
sS'x(45,A)'
p482
F1
sS'x(4,T)'
p483
F1
sS'x(18,D)'
p484
F1
sS'x(47,E)'
p485
F1
sS'x(12,A)'
p486
F1
sS'x(48,Q)'
p487
F1
sS'x(7,D)'
p488
F1
sS'x(16,V)'
p489
F1
sS'x(21,C)'
p490
F1
sS'x(11,A)'
p491
F1
sS'x(1,M)'
p492
F1
sS'x(30,K)'
p493
F1
sS'x(38,T)'
p494
F1
sS'x(19,T)'
p495
F1
sS'x(35,K)'
p496
F1
sS'x(49,M)'
p497
F1
sS'x(27,T)'
p498
F1
sS'x(44,E)'
p499
F1
sS'x(2,F)'
p500
F1
sS'x(15,T)'
p501
F1
sS'x(40,D)'
p502
F1
sS'x(31,V)'
p503
F1
sS'x(22,D)'
p504
F0.99999861157691794
sS'x(13,K)'
p505
F1
sS'x(41,Y)'
p506
F1
sS'x(5,A)'
p507
F1
sS'x(20,L)'
p508
F1
sS'x(34,A)'
p509
F1
sS'x(33,G)'
p510
F1
sS'x(23,A)'
p511
F1
sS'x(37,A)'
p512
F1
sS'x(42,L)'
p513
F1
sS'x(8,K)'
p514
F1
sS'x(50,R)'
p515
F1
sS'x(26,T)'
p516
F1
ssbag2
(g3
g4
NtRp517
(dp518
g7
Nsg8
(F13301.302588090197
F-221.65133723354666
tp519
sg10
(S'D'
S'A'
S'D'
S'A'
S'V'
S'A'
S'M'
S'T'
S'T'
S'K'
S'V'
S'L'
S'D'
S'K'
S'E'
S'K'
S'C'
S'T'
S'D'
S'F'
S'A'
S'T'
S'A'
S'Q'
S'A'
S'K'
S'D'
S'V'
S'T'
S'A'
S'V'
S'K'
S'G'
S'G'
S'E'
S'K'
S'A'
S'T'
S'E'
S'Q'
S'L'
S'D'
S'M'
S'Y'
S'D'
S'A'
S'R'
S'A'
S'D'
S'K'
S'A'
tp520
sg12
(dp521
S'x(39,A)'
p522
F1
sS'x(43,G)'
p523
F1
sS'x(14,D)'
p524
F1
sS'x(10,A)'
p525
F1
sS'x(3,Q)'
p526
F1
sS'x(17,V)'
p527
F1
sS'x(51,D)'
p528
F1
sS'x(25,D)'
p529
F1
sS'x(24,K)'
p530
F1
sS'x(9,A)'
p531
F1
sS'x(6,A)'
p532
F1
sS'x(46,K)'
p533
F1
sS'x(36,D)'
p534
F1
sS'x(29,E)'
p535
F1
sS'x(32,V)'
p536
F1
sS'x(28,K)'
p537
F1
sS'x(45,A)'
p538
F1
sS'x(4,T)'
p539
F1
sS'x(18,D)'
p540
F1
sS'x(47,E)'
p541
F1
sS'x(12,A)'
p542
F1
sS'x(48,Q)'
p543
F1
sS'x(7,D)'
p544
F1
sS'x(16,V)'
p545
F1
sS'x(21,C)'
p546
F1
sS'x(11,A)'
p547
F1
sS'x(1,M)'
p548
F1
sS'x(30,K)'
p549
F1
sS'x(38,T)'
p550
F1
sS'x(19,T)'
p551
F1
sS'x(35,K)'
p552
F1
sS'x(49,M)'
p553
F1
sS'x(27,T)'
p554
F1
sS'x(44,E)'
p555
F1
sS'x(2,F)'
p556
F1
sS'x(15,T)'
p557
F1
sS'x(40,D)'
p558
F1
sS'x(31,V)'
p559
F1
sS'x(22,D)'
p560
F1
sS'x(13,K)'
p561
F1
sS'x(41,Y)'
p562
F1
sS'x(5,A)'
p563
F1
sS'x(20,L)'
p564
F1
sS'x(34,A)'
p565
F1
sS'x(33,G)'
p566
F1
sS'x(23,A)'
p567
F1
sS'x(37,A)'
p568
F1
sS'x(42,L)'
p569
F1
sS'x(8,K)'
p570
F1
sS'x(50,R)'
p571
F1
sS'x(26,T)'
p572
F1
ssbag2
(g3
g4
NtRp573
(dp574
g7
Nsg8
(F13364.553604888544
F-221.84558867641516
tp575
sg10
(S'D'
S'G'
S'D'
S'A'
S'V'
S'A'
S'M'
S'T'
S'T'
S'K'
S'V'
S'L'
S'D'
S'K'
S'E'
S'C'
S'K'
S'D'
S'F'
S'A'
S'A'
S'T'
S'A'
S'Q'
S'A'
S'K'
S'D'
S'V'
S'T'
S'A'
S'V'
S'K'
S'G'
S'G'
S'E'
S'K'
S'A'
S'T'
S'E'
S'Q'
S'L'
S'D'
S'M'
S'Y'
S'D'
S'A'
S'R'
S'A'
S'D'
S'K'
S'L'
tp576
sg12
(dp577
S'x(39,A)'
p578
F1
sS'x(43,G)'
p579
F1
sS'x(14,D)'
p580
F1
sS'x(3,Q)'
p581
F1
sS'x(17,V)'
p582
F1
sS'x(51,D)'
p583
F1
sS'x(25,D)'
p584
F1
sS'x(24,K)'
p585
F1
sS'x(6,A)'
p586
F1
sS'x(46,K)'
p587
F1
sS'x(36,D)'
p588
F1
sS'x(29,E)'
p589
F1
sS'x(32,V)'
p590
F1
sS'y(A1101,5)'
p591
F0.94309675595152109
sS'x(45,A)'
p592
F1
sS'x(4,T)'
p593
F1
sS'x(9,L)'
p594
F1
sS'x(18,D)'
p595
F1
sS'x(47,E)'
p596
F1
sS'x(12,A)'
p597
F1
sS'x(48,Q)'
p598
F1
sS'x(7,D)'
p599
F1
sS'x(16,V)'
p600
F1
sS'x(10,G)'
p601
F1
sS'x(28,K)'
p602
F1
sS'x(11,A)'
p603
F1
sS'x(1,M)'
p604
F1
sS'x(30,K)'
p605
F1
sS'x(21,C)'
p606
F1
sS'x(19,T)'
p607
F1
sS'x(35,K)'
p608
F1
sS'x(49,M)'
p609
F1
sS'x(31,V)'
p610
F1
sS'x(44,E)'
p611
F1
sS'x(2,F)'
p612
F1
sS'x(15,T)'
p613
F1
sS'x(40,D)'
p614
F1
sS'x(22,D)'
p615
F1
sS'x(13,K)'
p616
F1
sS'x(41,Y)'
p617
F1
sS'x(5,A)'
p618
F1
sS'x(27,A)'
p619
F1
sS'x(20,L)'
p620
F1
sS'x(34,A)'
p621
F1
sS'x(33,G)'
p622
F1
sS'x(38,T)'
p623
F1
sS'x(23,A)'
p624
F1
sS'x(37,A)'
p625
F1
sS'x(42,L)'
p626
F1
sS'x(8,K)'
p627
F1
sS'x(50,R)'
p628
F1
sS'x(26,T)'
p629
F1
ssbag2
(g3
g4
NtRp630
(dp631
g7
Nsg8
(F13364.554604888544
F-221.84558943664885
tp632
sg10
(S'D'
S'G'
S'D'
S'A'
S'V'
S'A'
S'M'
S'T'
S'T'
S'K'
S'V'
S'L'
S'D'
S'K'
S'E'
S'C'
S'K'
S'D'
S'F'
S'A'
S'A'
S'T'
S'A'
S'Q'
S'A'
S'K'
S'D'
S'V'
S'T'
S'A'
S'V'
S'K'
S'G'
S'G'
S'E'
S'K'
S'A'
S'T'
S'E'
S'Q'
S'L'
S'D'
S'M'
S'Y'
S'D'
S'A'
S'R'
S'A'
S'D'
S'K'
S'L'
tp633
sg12
(dp634
S'x(39,A)'
p635
F1
sS'x(43,G)'
p636
F1
sS'x(14,D)'
p637
F1
sS'x(3,Q)'
p638
F1
sS'x(17,V)'
p639
F1
sS'x(51,D)'
p640
F1
sS'x(25,D)'
p641
F1
sS'x(24,K)'
p642
F1
sS'x(6,A)'
p643
F1
sS'x(46,K)'
p644
F1
sS'x(36,D)'
p645
F1
sS'x(29,E)'
p646
F1
sS'x(32,V)'
p647
F1
sS'y(A1101,5)'
p648
F0.94309675595152109
sS'x(45,A)'
p649
F1
sS'x(4,T)'
p650
F1
sS'x(9,L)'
p651
F1
sS'x(18,D)'
p652
F1
sS'x(47,E)'
p653
F1
sS'x(12,A)'
p654
F1
sS'x(48,Q)'
p655
F1
sS'x(7,D)'
p656
F1
sS'x(16,V)'
p657
F1
sS'x(10,G)'
p658
F1
sS'x(28,K)'
p659
F1
sS'x(11,A)'
p660
F1
sS'x(1,M)'
p661
F1
sS'x(30,K)'
p662
F1
sS'x(21,C)'
p663
F1
sS'x(19,T)'
p664
F1
sS'x(35,K)'
p665
F1
sS'x(49,M)'
p666
F1
sS'x(31,V)'
p667
F1
sS'x(44,E)'
p668
F1
sS'x(2,F)'
p669
F1
sS'x(15,T)'
p670
F1
sS'x(40,D)'
p671
F1
sS'x(22,D)'
p672
F1
sS'x(13,K)'
p673
F1
sS'x(41,Y)'
p674
F1
sS'x(5,A)'
p675
F1
sS'x(27,A)'
p676
F1
sS'x(20,L)'
p677
F1
sS'x(34,A)'
p678
F1
sS'x(33,G)'
p679
F1
sS'x(38,T)'
p680
F1
sS'x(23,A)'
p681
F1
sS'x(37,A)'
p682
F1
sS'x(42,L)'
p683
F1
sS'x(8,K)'
p684
F1
sS'x(50,R)'
p685
F1
sS'x(26,T)'
p686
F1
ssbag2
(g3
g4
NtRp687
(dp688
g7
Nsg8
(F13823.203817007306
F-221.91731373307994
tp689
sg10
(S'D'
S'D'
S'A'
S'V'
S'R'
S'A'
S'M'
S'T'
S'T'
S'K'
S'V'
S'L'
S'D'
S'K'
S'E'
S'K'
S'C'
S'T'
S'D'
S'F'
S'A'
S'T'
S'A'
S'Q'
S'A'
S'K'
S'D'
S'V'
S'T'
S'A'
S'V'
S'K'
S'G'
S'G'
S'E'
S'K'
S'A'
S'T'
S'E'
S'Q'
S'L'
S'D'
S'M'
S'Y'
S'D'
S'A'
S'R'
S'A'
S'D'
S'K'
S'L'
tp690
sg12
(dp691
S'x(39,A)'
p692
F1
sS'x(43,G)'
p693
F1
sS'x(14,D)'
p694
F1
sS'x(3,Q)'
p695
F1
sS'x(17,V)'
p696
F1
sS'x(51,D)'
p697
F1
sS'x(25,D)'
p698
F1
sS'x(24,K)'
p699
F1
sS'x(6,A)'
p700
F1
sS'x(46,K)'
p701
F1
sS'x(36,D)'
p702
F1
sS'x(29,E)'
p703
F1
sS'x(32,V)'
p704
F1
sS'x(28,K)'
p705
F1
sS'x(45,A)'
p706
F1
sS'x(4,T)'
p707
F1
sS'x(9,L)'
p708
F1
sS'x(18,D)'
p709
F1
sS'x(47,E)'
p710
F1
sS'x(12,A)'
p711
F1
sS'x(48,Q)'
p712
F1
sS'x(7,D)'
p713
F1
sS'x(16,V)'
p714
F1
sS'x(21,C)'
p715
F1
sS'x(10,R)'
p716
F1
sS'x(11,A)'
p717
F1
sS'x(1,M)'
p718
F1
sS'x(30,K)'
p719
F1
sS'x(38,T)'
p720
F1
sS'x(19,T)'
p721
F1
sS'x(35,K)'
p722
F1
sS'x(49,M)'
p723
F1
sS'x(27,T)'
p724
F1
sS'x(44,E)'
p725
F1
sS'x(2,F)'
p726
F1
sS'x(15,T)'
p727
F1
sS'x(40,D)'
p728
F1
sS'x(31,V)'
p729
F1
sS'x(22,D)'
p730
F1
sS'x(13,K)'
p731
F1
sS'x(41,Y)'
p732
F1
sS'x(5,A)'
p733
F1
sS'x(20,L)'
p734
F1
sS'x(34,A)'
p735
F1
sS'x(33,G)'
p736
F1
sS'x(23,A)'
p737
F1
sS'x(37,A)'
p738
F1
sS'x(42,L)'
p739
F1
sS'x(8,K)'
p740
F1
sS'x(50,R)'
p741
F1
sS'x(26,T)'
p742
F1
ssbag2
(g3
g4
NtRp743
(dp744
g7
Nsg8
(F13823.20481700731
F-221.91731377375982
tp745
sg10
(S'D'
S'D'
S'A'
S'V'
S'R'
S'A'
S'M'
S'T'
S'T'
S'K'
S'V'
S'L'
S'D'
S'K'
S'E'
S'K'
S'C'
S'T'
S'D'
S'F'
S'A'
S'T'
S'A'
S'Q'
S'A'
S'K'
S'D'
S'V'
S'T'
S'A'
S'V'
S'K'
S'G'
S'G'
S'E'
S'K'
S'A'
S'T'
S'E'
S'Q'
S'L'
S'D'
S'M'
S'Y'
S'D'
S'A'
S'R'
S'A'
S'D'
S'K'
S'L'
tp746
sg12
(dp747
S'x(39,A)'
p748
F1.0000000031540093
sS'x(43,G)'
p749
F1
sS'x(14,D)'
p750
F1
sS'x(3,Q)'
p751
F1
sS'x(17,V)'
p752
F1.0000000028672811
sS'x(51,D)'
p753
F1
sS'x(25,D)'
p754
F1
sS'x(24,K)'
p755
F1.0000000011469126
sS'x(6,A)'
p756
F1.0000000022938249
sS'x(46,K)'
p757
F1
sS'x(36,D)'
p758
F1.0000000011469126
sS'x(29,E)'
p759
F1.0000000011469126
sS'x(32,V)'
p760
F1.0000000002867282
sS'x(28,K)'
p761
F0.99999999684599072
sS'x(45,A)'
p762
F1.0000000321487768
sS'x(4,T)'
p763
F0.99999999857158983
sS'x(9,L)'
p764
F1.0000000014336405
sS'x(18,D)'
p765
F1.0000000031540093
sS'x(47,E)'
p766
F1.0000000031540093
sS'x(12,A)'
p767
F1
sS'x(48,Q)'
p768
F1
sS'x(7,D)'
p769
F1.0000000002867282
sS'x(16,V)'
p770
F1.0000000028672811
sS'x(21,C)'
p771
F1.0000000020070967
sS'x(10,R)'
p772
F0.99999999885308755
sS'x(11,A)'
p773
F1.0000000002867282
sS'x(1,M)'
p774
F1
sS'x(30,K)'
p775
F1
sS'x(38,T)'
p776
F1.000000004874378
sS'x(19,T)'
p777
F1.0000000011469126
sS'x(35,K)'
p778
F1.0000000011469126
sS'x(49,M)'
p779
F1
sS'x(27,T)'
p780
F1.0000000045876498
sS'x(44,E)'
p781
F1.0000000011469126
sS'x(2,F)'
p782
F1
sS'x(15,T)'
p783
F1.0000000022938249
sS'x(40,D)'
p784
F1.0000000020070967
sS'x(31,V)'
p785
F1.0000000054478342
sS'x(22,D)'
p786
F1.0000000002867282
sS'x(13,K)'
p787
F1.0000000011469126
sS'x(41,Y)'
p788
F1.0000000038847239
sS'x(5,A)'
p789
F1.0000000011469126
sS'x(20,L)'
p790
F1.0000000013416077
sS'x(34,A)'
p791
F1.0000000011469126
sS'x(33,G)'
p792
F1.0000000017203687
sS'x(23,A)'
p793
F1.0000000005734562
sS'x(37,A)'
p794
F1.0000000028672811
sS'x(42,L)'
p795
F1.000000004874378
sS'x(8,K)'
p796
F1
sS'x(50,R)'
p797
F1
sS'x(26,T)'
p798
F1.0000000005734562
ssbag2
(g3
g4
NtRp799
(dp800
g7
Nsg8
(F14212.27735100644
F-223.28014611434833
tp801
sg10
(S'D'
S'G'
S'D'
S'A'
S'V'
S'A'
S'M'
S'T'
S'T'
S'K'
S'V'
S'L'
S'D'
S'K'
S'E'
S'C'
S'K'
S'T'
S'D'
S'F'
S'A'
S'T'
S'A'
S'Q'
S'A'
S'K'
S'D'
S'V'
S'T'
S'A'
S'V'
S'K'
S'G'
S'G'
S'E'
S'K'
S'A'
S'T'
S'E'
S'Q'
S'L'
S'D'
S'M'
S'Y'
S'D'
S'A'
S'R'
S'A'
S'D'
S'K'
S'L'
tp802
sg12
(dp803
S'x(39,A)'
p804
F1
sS'x(43,G)'
p805
F1
sS'x(14,D)'
p806
F1
sS'x(3,Q)'
p807
F1
sS'x(17,V)'
p808
F1
sS'x(51,D)'
p809
F1
sS'x(25,D)'
p810
F1
sS'x(24,K)'
p811
F1
sS'x(6,A)'
p812
F1
sS'x(46,K)'
p813
F1
sS'x(36,D)'
p814
F1
sS'x(29,E)'
p815
F1
sS'x(32,V)'
p816
F1
sS'y(A1101,5)'
p817
F0.94309675595152109
sS'x(45,A)'
p818
F1
sS'x(4,T)'
p819
F1
sS'x(9,L)'
p820
F1
sS'x(18,D)'
p821
F1
sS'x(47,E)'
p822
F1
sS'x(12,A)'
p823
F1
sS'x(48,Q)'
p824
F1
sS'x(7,D)'
p825
F1
sS'x(16,V)'
p826
F1
sS'x(10,G)'
p827
F1
sS'x(28,K)'
p828
F1
sS'x(11,A)'
p829
F1
sS'x(1,M)'
p830
F1
sS'x(30,K)'
p831
F1
sS'x(21,C)'
p832
F1
sS'x(19,T)'
p833
F1
sS'x(35,K)'
p834
F1
sS'x(49,M)'
p835
F1
sS'x(27,T)'
p836
F1
sS'x(44,E)'
p837
F1
sS'x(2,F)'
p838
F1
sS'x(15,T)'
p839
F1
sS'x(40,D)'
p840
F1
sS'x(31,V)'
p841
F1
sS'x(22,D)'
p842
F0.99999884428567576
sS'x(13,K)'
p843
F1
sS'x(41,Y)'
p844
F1
sS'x(5,A)'
p845
F1
sS'x(20,L)'
p846
F1
sS'x(34,A)'
p847
F1
sS'x(33,G)'
p848
F1
sS'x(38,T)'
p849
F1
sS'x(23,A)'
p850
F1
sS'x(37,A)'
p851
F1
sS'x(42,L)'
p852
F1
sS'x(8,K)'
p853
F1
sS'x(50,R)'
p854
F1
sS'x(26,T)'
p855
F1
ssbag2
(g3
g4
NtRp856
(dp857
g7
Nsg8
(F14212.280370800072
F-223.28014667244858
tp858
sg10
(S'D'
S'G'
S'D'
S'A'
S'V'
S'A'
S'M'
S'T'
S'T'
S'K'
S'V'
S'L'
S'D'
S'K'
S'E'
S'C'
S'K'
S'T'
S'D'
S'F'
S'A'
S'T'
S'A'
S'Q'
S'A'
S'K'
S'D'
S'V'
S'T'
S'A'
S'V'
S'K'
S'G'
S'G'
S'E'
S'K'
S'A'
S'T'
S'E'
S'Q'
S'L'
S'D'
S'M'
S'Y'
S'D'
S'A'
S'R'
S'A'
S'D'
S'K'
S'L'
tp859
sg12
(dp860
S'x(39,A)'
p861
F1
sS'x(43,G)'
p862
F1
sS'x(14,D)'
p863
F1
sS'x(3,Q)'
p864
F1
sS'x(17,V)'
p865
F1
sS'x(51,D)'
p866
F1
sS'x(25,D)'
p867
F1
sS'x(24,K)'
p868
F1
sS'x(6,A)'
p869
F1
sS'x(46,K)'
p870
F1
sS'x(36,D)'
p871
F1
sS'x(29,E)'
p872
F1
sS'x(32,V)'
p873
F1
sS'y(A1101,5)'
p874
F0.94309675595152109
sS'x(45,A)'
p875
F1
sS'x(4,T)'
p876
F1
sS'x(9,L)'
p877
F1
sS'x(18,D)'
p878
F1
sS'x(47,E)'
p879
F1
sS'x(12,A)'
p880
F1
sS'x(48,Q)'
p881
F1
sS'x(7,D)'
p882
F1
sS'x(16,V)'
p883
F1
sS'x(10,G)'
p884
F1
sS'x(28,K)'
p885
F1
sS'x(11,A)'
p886
F1
sS'x(1,M)'
p887
F1
sS'x(30,K)'
p888
F1
sS'x(21,C)'
p889
F1
sS'x(19,T)'
p890
F1
sS'x(35,K)'
p891
F1
sS'x(49,M)'
p892
F1
sS'x(27,T)'
p893
F1
sS'x(44,E)'
p894
F1
sS'x(2,F)'
p895
F1
sS'x(15,T)'
p896
F1
sS'x(40,D)'
p897
F1
sS'x(31,V)'
p898
F1
sS'x(22,D)'
p899
F1
sS'x(13,K)'
p900
F1
sS'x(41,Y)'
p901
F1
sS'x(5,A)'
p902
F1
sS'x(20,L)'
p903
F1
sS'x(34,A)'
p904
F1
sS'x(33,G)'
p905
F1
sS'x(38,T)'
p906
F1
sS'x(23,A)'
p907
F1
sS'x(37,A)'
p908
F1
sS'x(42,L)'
p909
F1
sS'x(8,K)'
p910
F1
sS'x(50,R)'
p911
F1
sS'x(26,T)'
p912
F1
ssbag2
(g3
g4
NtRp913
(dp914
g7
Nsg8
(F16159.52829022822
F-223.75661303897851
tp915
sg10
(S'D'
S'G'
S'D'
S'A'
S'V'
S'A'
S'M'
S'T'
S'T'
S'K'
S'V'
S'L'
S'D'
S'K'
S'E'
S'C'
S'K'
S'V'
S'D'
S'F'
S'A'
S'T'
S'A'
S'Q'
S'A'
S'K'
S'D'
S'V'
S'T'
S'A'
S'A'
S'K'
S'G'
S'G'
S'E'
S'K'
S'A'
S'T'
S'E'
S'Q'
S'L'
S'D'
S'M'
S'Y'
S'D'
S'A'
S'R'
S'A'
S'D'
S'K'
S'L'
tp916
sg12
(dp917
S'x(39,A)'
p918
F1
sS'x(43,G)'
p919
F1
sS'x(14,D)'
p920
F1
sS'x(3,Q)'
p921
F1
sS'x(17,V)'
p922
F1
sS'x(51,D)'
p923
F1
sS'x(25,D)'
p924
F1
sS'x(24,K)'
p925
F1
sS'x(6,A)'
p926
F1
sS'x(46,K)'
p927
F1
sS'x(36,D)'
p928
F1
sS'x(29,E)'
p929
F1
sS'x(32,V)'
p930
F1
sS'y(A1101,5)'
p931
F0.94309677395152491
sS'x(45,A)'
p932
F1
sS'x(4,T)'
p933
F1
sS'x(9,L)'
p934
F1
sS'x(18,D)'
p935
F1
sS'x(47,E)'
p936
F1
sS'x(12,A)'
p937
F1
sS'x(48,Q)'
p938
F1
sS'x(7,D)'
p939
F1
sS'x(16,V)'
p940
F1
sS'x(10,G)'
p941
F1
sS'x(28,K)'
p942
F1
sS'x(27,V)'
p943
F1.0000000214909572
sS'x(11,A)'
p944
F1
sS'x(1,M)'
p945
F1
sS'x(30,K)'
p946
F1
sS'x(21,C)'
p947
F1
sS'x(19,T)'
p948
F1
sS'x(35,K)'
p949
F1
sS'x(49,M)'
p950
F1
sS'x(44,E)'
p951
F1
sS'x(2,F)'
p952
F1
sS'x(15,T)'
p953
F1
sS'x(31,A)'
p954
F1
sS'x(40,D)'
p955
F1
sS'x(22,D)'
p956
F1
sS'x(13,K)'
p957
F1
sS'x(41,Y)'
p958
F1
sS'x(5,A)'
p959
F1
sS'x(20,L)'
p960
F1
sS'x(34,A)'
p961
F1
sS'x(33,G)'
p962
F1
sS'x(38,T)'
p963
F1
sS'x(23,A)'
p964
F1
sS'x(37,A)'
p965
F0.99999998925452138
sS'x(42,L)'
p966
F1
sS'x(8,K)'
p967
F0.99999998925452138
sS'x(50,R)'
p968
F1
sS'x(26,T)'
p969
F1
ssbag2
(g3
g4
NtRp970
(dp971
g7
Nsg8
(F16584.474001807193
F-224.0671254826957
tp972
sg10
(S'D'
S'D'
S'A'
S'V'
S'G'
S'A'
S'M'
S'T'
S'T'
S'K'
S'V'
S'L'
S'D'
S'K'
S'E'
S'R'
S'K'
S'V'
S'D'
S'F'
S'A'
S'T'
S'A'
S'Q'
S'A'
S'K'
S'D'
S'V'
S'T'
S'A'
S'V'
S'K'
S'G'
S'G'
S'E'
S'K'
S'A'
S'T'
S'E'
S'Q'
S'L'
S'D'
S'M'
S'Y'
S'D'
S'A'
S'R'
S'A'
S'D'
S'K'
S'L'
tp973
sg12
(dp974
S'x(39,A)'
p975
F1
sS'x(43,G)'
p976
F1
sS'x(14,D)'
p977
F1
sS'x(3,Q)'
p978
F1
sS'x(17,V)'
p979
F1
sS'x(51,D)'
p980
F1
sS'x(25,D)'
p981
F1
sS'x(24,K)'
p982
F1
sS'y(A0201,19)'
p983
F0.93513567737254499
sS'x(6,A)'
p984
F1
sS'x(46,K)'
p985
F1
sS'x(36,D)'
p986
F1
sS'x(29,E)'
p987
F1
sS'x(32,V)'
p988
F1
sS'y(A1101,5)'
p989
F0.94309675595152109
sS'x(45,A)'
p990
F1
sS'x(4,T)'
p991
F1
sS'x(9,L)'
p992
F1
sS'x(21,R)'
p993
F1
sS'x(18,D)'
p994
F1
sS'x(47,E)'
p995
F1
sS'x(12,A)'
p996
F1
sS'x(48,Q)'
p997
F1
sS'x(7,D)'
p998
F1
sS'x(16,V)'
p999
F1
sS'x(10,G)'
p1000
F1
sS'x(28,K)'
p1001
F1
sS'x(27,V)'
p1002
F1
sS'x(11,A)'
p1003
F1
sS'x(1,M)'
p1004
F1
sS'x(30,K)'
p1005
F1
sS'x(38,T)'
p1006
F1
sS'x(19,T)'
p1007
F1
sS'x(35,K)'
p1008
F1
sS'x(49,M)'
p1009
F1
sS'x(31,V)'
p1010
F1
sS'x(44,E)'
p1011
F1
sS'x(2,F)'
p1012
F1
sS'x(15,T)'
p1013
F1
sS'x(40,D)'
p1014
F1
sS'x(22,D)'
p1015
F1
sS'x(13,K)'
p1016
F1
sS'x(41,Y)'
p1017
F1
sS'x(5,A)'
p1018
F1
sS'x(20,L)'
p1019
F1
sS'x(34,A)'
p1020
F1
sS'x(33,G)'
p1021
F1
sS'x(23,A)'
p1022
F1
sS'x(37,A)'
p1023
F1
sS'x(42,L)'
p1024
F1
sS'x(8,K)'
p1025
F1
sS'x(50,R)'
p1026
F1
sS'x(26,T)'
p1027
F1
ssbag2
(g3
g4
NtRp1028
(dp1029
g7
Nsg8
(F16584.475001807194
F-224.06712550604925
tp1030
sg10
(S'D'
S'D'
S'A'
S'V'
S'G'
S'A'
S'M'
S'T'
S'T'
S'K'
S'V'
S'L'
S'D'
S'K'
S'E'
S'R'
S'K'
S'V'
S'D'
S'F'
S'A'
S'T'
S'A'
S'Q'
S'A'
S'K'
S'D'
S'V'
S'T'
S'A'
S'V'
S'K'
S'G'
S'G'
S'E'
S'K'
S'A'
S'T'
S'E'
S'Q'
S'L'
S'D'
S'M'
S'Y'
S'D'
S'A'
S'R'
S'A'
S'D'
S'K'
S'L'
tp1031
sg12
(dp1032
S'x(39,A)'
p1033
F0.99999999935069228
sS'x(43,G)'
p1034
F1.0000000002568372
sS'x(14,D)'
p1035
F0.99999999983839449
sS'x(3,Q)'
p1036
F1
sS'x(17,V)'
p1037
F0.99999999942283757
sS'x(51,D)'
p1038
F1
sS'x(25,D)'
p1039
F0.99999999998845679
sS'x(24,K)'
p1040
F0.99999999972584785
sS'y(A0201,19)'
p1041
F0.93513569637254412
sS'x(6,A)'
p1042
F0.9999999997633634
sS'x(46,K)'
p1043
F0.99999999982107968
sS'x(36,D)'
p1044
F0.99999999998845679
sS'x(29,E)'
p1045
F0.99999999946901053
sS'x(32,V)'
p1046
F0.9999999994459241
sS'y(A1101,5)'
p1047
F0.94309677495152155
sS'x(45,A)'
p1048
F1.0000000005309895
sS'x(4,T)'
p1049
F0.99999999982396548
sS'x(9,L)'
p1050
F0.99999999899862313
sS'x(21,R)'
p1051
F1.0000000000663736
sS'x(18,D)'
p1052
F0.9999999994459241
sS'x(47,E)'
p1053
F0.99999999959598629
sS'x(12,A)'
p1054
F0.99999999959598629
sS'x(48,Q)'
p1055
F1
sS'x(7,D)'
p1056
F0.99999999959598629
sS'x(16,V)'
p1057
F0.99999999914291382
sS'x(10,G)'
p1058
F1.0000000004415293
sS'x(28,K)'
p1059
F0.99999999957289976
sS'x(27,V)'
p1060
F0.99999999819925323
sS'x(11,A)'
p1061
F0.99999999959598629
sS'x(1,M)'
p1062
F1
sS'x(30,K)'
p1063
F1
sS'x(38,T)'
p1064
F1.0000000157565343
sS'x(19,T)'
p1065
F0.99999999972584785
sS'x(35,K)'
p1066
F0.99999999998845679
sS'x(49,M)'
p1067
F1
sS'x(31,V)'
p1068
F0.99999999973450526
sS'x(44,E)'
p1069
F1.0000000000981175
sS'x(2,F)'
p1070
F1
sS'x(15,T)'
p1071
F0.99999999982396548
sS'x(40,D)'
p1072
F0.99999999916600024
sS'x(22,D)'
p1073
F0.99999999951806939
sS'x(13,K)'
p1074
F0.99999999994228372
sS'x(41,Y)'
p1075
F1
sS'x(5,A)'
p1076
F0.99999999955847074
sS'x(20,L)'
p1077
F0.99999999956135655
sS'x(34,A)'
p1078
F0.9999999993680071
sS'x(33,G)'
p1079
F0.99999999955847074
sS'x(23,A)'
p1080
F0.99999999972584785
sS'x(37,A)'
p1081
F0.99999999985282362
sS'x(42,L)'
p1082
F0.99999999988745336
sS'x(8,K)'
p1083
F1.000000000490588
sS'x(50,R)'
p1084
F1
sS'x(26,T)'
p1085
F0.99999999951229779
ssbag2
(g3
g4
NtRp1086
(dp1087
g7
Nsg8
(F17100.97054858171
F-224.27026401470556
tp1088
sg10
(S'D'
S'A'
S'D'
S'A'
S'V'
S'A'
S'M'
S'T'
S'T'
S'K'
S'V'
S'L'
S'G'
S'D'
S'K'
S'E'
S'K'
S'T'
S'D'
S'F'
S'A'
S'T'
S'A'
S'Q'
S'A'
S'K'
S'D'
S'V'
S'T'
S'A'
S'V'
S'K'
S'G'
S'G'
S'E'
S'K'
S'A'
S'T'
S'E'
S'Q'
S'L'
S'D'
S'M'
S'Y'
S'D'
S'A'
S'R'
S'A'
S'D'
S'K'
S'L'
tp1089
sg12
(dp1090
S'x(39,A)'
p1091
F1
sS'x(43,G)'
p1092
F1
sS'x(14,D)'
p1093
F1
sS'x(10,A)'
p1094
F1
sS'x(3,Q)'
p1095
F1
sS'x(17,V)'
p1096
F1
sS'x(21,G)'
p1097
F1.0000000615132851
sS'x(51,D)'
p1098
F1
sS'x(25,D)'
p1099
F1
sS'x(24,K)'
p1100
F1
sS'x(6,A)'
p1101
F1
sS'x(46,K)'
p1102
F1
sS'x(36,D)'
p1103
F1
sS'x(29,E)'
p1104
F1
sS'x(32,V)'
p1105
F1
sS'x(28,K)'
p1106
F1.0000000615132851
sS'x(45,A)'
p1107
F1.0000003063791556
sS'x(4,T)'
p1108
F1
sS'x(9,L)'
p1109
F1
sS'x(18,D)'
p1110
F1.0000000615132851
sS'x(47,E)'
p1111
F1
sS'x(12,A)'
p1112
F1
sS'x(48,Q)'
p1113
F1
sS'x(7,D)'
p1114
F1.0000000615132851
sS'x(16,V)'
p1115
F1
sS'x(11,A)'
p1116
F1
sS'x(1,M)'
p1117
F1
sS'x(30,K)'
p1118
F1
sS'x(38,T)'
p1119
F1
sS'x(19,T)'
p1120
F1
sS'x(35,K)'
p1121
F1
sS'x(49,M)'
p1122
F1
sS'x(27,T)'
p1123
F1.0000000615132851
sS'x(44,E)'
p1124
F1
sS'x(2,F)'
p1125
F1
sS'x(15,T)'
p1126
F1
sS'x(40,D)'
p1127
F1.0000000615132851
sS'x(31,V)'
p1128
F1
sS'x(22,D)'
p1129
F1
sS'x(13,K)'
p1130
F1
sS'x(41,Y)'
p1131
F1
sS'x(5,A)'
p1132
F1
sS'x(20,L)'
p1133
F1
sS'x(34,A)'
p1134
F1
sS'x(33,G)'
p1135
F1.0000000603260151
sS'x(23,A)'
p1136
F1
sS'x(37,A)'
p1137
F1
sS'x(42,L)'
p1138
F1
sS'x(8,K)'
p1139
F1
sS'x(50,R)'
p1140
F1
sS'x(26,T)'
p1141
F1
ssbag2
(g3
g4
NtRp1142
(dp1143
g7
Nsg8
(F17100.971548581714
F-224.27026455517625
tp1144
sg10
(S'D'
S'A'
S'D'
S'A'
S'V'
S'A'
S'M'
S'T'
S'T'
S'K'
S'V'
S'L'
S'G'
S'D'
S'K'
S'E'
S'K'
S'T'
S'D'
S'F'
S'A'
S'T'
S'A'
S'Q'
S'A'
S'K'
S'D'
S'V'
S'T'
S'A'
S'V'
S'K'
S'G'
S'G'
S'E'
S'K'
S'A'
S'T'
S'E'
S'Q'
S'L'
S'D'
S'M'
S'Y'
S'D'
S'A'
S'R'
S'A'
S'D'
S'K'
S'L'
tp1145
sg12
(dp1146
S'x(39,A)'
p1147
F1
sS'x(43,G)'
p1148
F1
sS'x(14,D)'
p1149
F1
sS'x(10,A)'
p1150
F1
sS'x(3,Q)'
p1151
F1
sS'x(17,V)'
p1152
F1
sS'x(21,G)'
p1153
F1
sS'x(51,D)'
p1154
F1
sS'x(25,D)'
p1155
F1
sS'x(24,K)'
p1156
F1
sS'x(6,A)'
p1157
F1
sS'x(46,K)'
p1158
F1
sS'x(36,D)'
p1159
F1
sS'x(29,E)'
p1160
F1
sS'x(32,V)'
p1161
F1
sS'x(28,K)'
p1162
F1
sS'x(45,A)'
p1163
F1
sS'x(4,T)'
p1164
F1
sS'x(9,L)'
p1165
F1
sS'x(18,D)'
p1166
F1
sS'x(47,E)'
p1167
F1
sS'x(12,A)'
p1168
F1
sS'x(48,Q)'
p1169
F1
sS'x(7,D)'
p1170
F1
sS'x(16,V)'
p1171
F1
sS'x(11,A)'
p1172
F1
sS'x(1,M)'
p1173
F1
sS'x(30,K)'
p1174
F1
sS'x(38,T)'
p1175
F1
sS'x(19,T)'
p1176
F1
sS'x(35,K)'
p1177
F1
sS'x(49,M)'
p1178
F1
sS'x(27,T)'
p1179
F1
sS'x(44,E)'
p1180
F1
sS'x(2,F)'
p1181
F1
sS'x(15,T)'
p1182
F1
sS'x(40,D)'
p1183
F1
sS'x(31,V)'
p1184
F1
sS'x(22,D)'
p1185
F1
sS'x(13,K)'
p1186
F1
sS'x(41,Y)'
p1187
F1
sS'x(5,A)'
p1188
F1
sS'x(20,L)'
p1189
F1
sS'x(34,A)'
p1190
F1
sS'x(33,G)'
p1191
F1
sS'x(23,A)'
p1192
F1
sS'x(37,A)'
p1193
F1
sS'x(42,L)'
p1194
F1
sS'x(8,K)'
p1195
F1
sS'x(50,R)'
p1196
F1
sS'x(26,T)'
p1197
F1
ssbag2
(g3
g4
NtRp1198
(dp1199
g7
Nsg8
(F17126.02445389425
F-224.43455520359566
tp1200
sg10
(S'D'
S'A'
S'D'
S'A'
S'V'
S'A'
S'M'
S'T'
S'T'
S'K'
S'V'
S'L'
S'D'
S'K'
S'E'
S'K'
S'V'
S'T'
S'D'
S'F'
S'A'
S'T'
S'A'
S'Q'
S'A'
S'K'
S'D'
S'V'
S'T'
S'A'
S'V'
S'K'
S'G'
S'G'
S'E'
S'K'
S'A'
S'T'
S'E'
S'Q'
S'L'
S'D'
S'M'
S'Y'
S'D'
S'A'
S'R'
S'A'
S'D'
S'K'
S'L'
tp1201
sg12
(dp1202
S'x(39,A)'
p1203
F1
sS'x(43,G)'
p1204
F1
sS'x(14,D)'
p1205
F1
sS'x(10,A)'
p1206
F1
sS'x(3,Q)'
p1207
F1
sS'x(17,V)'
p1208
F1
sS'x(51,D)'
p1209
F1
sS'x(25,D)'
p1210
F1
sS'x(24,K)'
p1211
F1
sS'x(6,A)'
p1212
F1
sS'x(46,K)'
p1213
F1
sS'x(36,D)'
p1214
F1
sS'x(29,E)'
p1215
F1
sS'x(32,V)'
p1216
F1
sS'x(28,K)'
p1217
F1
sS'x(45,A)'
p1218
F1
sS'x(4,T)'
p1219
F1
sS'x(9,L)'
p1220
F1
sS'x(18,D)'
p1221
F1
sS'x(47,E)'
p1222
F1
sS'x(12,A)'
p1223
F1
sS'x(48,Q)'
p1224
F1
sS'x(7,D)'
p1225
F1
sS'x(16,V)'
p1226
F1
sS'x(21,V)'
p1227
F1
sS'x(11,A)'
p1228
F1
sS'x(1,M)'
p1229
F1
sS'x(30,K)'
p1230
F1
sS'x(38,T)'
p1231
F1
sS'x(19,T)'
p1232
F1
sS'x(35,K)'
p1233
F1
sS'x(49,M)'
p1234
F1
sS'x(27,T)'
p1235
F1
sS'x(44,E)'
p1236
F1
sS'x(2,F)'
p1237
F1
sS'x(15,T)'
p1238
F1
sS'x(40,D)'
p1239
F1
sS'x(31,V)'
p1240
F1
sS'x(22,D)'
p1241
F1
sS'x(13,K)'
p1242
F1
sS'x(41,Y)'
p1243
F1
sS'x(5,A)'
p1244
F1
sS'x(20,L)'
p1245
F1
sS'x(34,A)'
p1246
F1
sS'x(33,G)'
p1247
F1
sS'x(23,A)'
p1248
F1
sS'x(37,A)'
p1249
F1
sS'x(42,L)'
p1250
F1
sS'x(8,K)'
p1251
F1
sS'x(50,R)'
p1252
F1
sS'x(26,T)'
p1253
F1
ssbag2
(g3
g4
NtRp1254
(dp1255
g7
Nsg8
(F17126.025453894254
F-224.4345552541476
tp1256
sg10
(S'D'
S'A'
S'D'
S'A'
S'V'
S'A'
S'M'
S'T'
S'T'
S'K'
S'V'
S'L'
S'D'
S'K'
S'E'
S'K'
S'V'
S'T'
S'D'
S'F'
S'A'
S'T'
S'A'
S'Q'
S'A'
S'K'
S'D'
S'V'
S'T'
S'A'
S'V'
S'K'
S'G'
S'G'
S'E'
S'K'
S'A'
S'T'
S'E'
S'Q'
S'L'
S'D'
S'M'
S'Y'
S'D'
S'A'
S'R'
S'A'
S'D'
S'K'
S'L'
tp1257
sg12
(dp1258
S'x(39,A)'
p1259
F1.0000000036677892
sS'x(43,G)'
p1260
F0.99999999938088113
sS'x(14,D)'
p1261
F0.99999999914345883
sS'x(10,A)'
p1262
F1.0000000006030105
sS'x(3,Q)'
p1263
F1
sS'x(17,V)'
p1264
F0.99999999923870786
sS'x(51,D)'
p1265
F1
sS'x(25,D)'
p1266
F0.99999999938088113
sS'x(24,K)'
p1267
F1.0000000054677161
sS'x(6,A)'
p1268
F0.99999999700945974
sS'x(46,K)'
p1269
F1.0000000011703027
sS'x(36,D)'
p1270
F0.99999999938088113
sS'x(29,E)'
p1271
F1.0000000007080647
sS'x(32,V)'
p1272
F0.99999999903630366
sS'x(28,K)'
p1273
F0.99999999744088197
sS'x(45,A)'
p1274
F0.99999999948803631
sS'x(4,T)'
p1275
F0.99999999981230336
sS'x(9,L)'
p1276
F0.99999999947192797
sS'x(18,D)'
p1277
F0.9999999991581664
sS'x(47,E)'
p1278
F0.99999999993416611
sS'x(12,A)'
p1279
F1.0000000007907073
sS'x(48,Q)'
p1280
F1
sS'x(7,D)'
p1281
F0.9999999991581664
sS'x(16,V)'
p1282
F0.99999999959379082
sS'x(21,V)'
p1283
F1.0000000017523025
sS'x(11,A)'
p1284
F0.99999999903630366
sS'x(1,M)'
p1285
F1
sS'x(30,K)'
p1286
F1
sS'x(38,T)'
p1287
F0.99999999903630366
sS'x(19,T)'
p1288
F1.0000000054677161
sS'x(35,K)'
p1289
F0.99999999938088113
sS'x(49,M)'
p1290
F1
sS'x(27,T)'
p1291
F1.0000000016612556
sS'x(44,E)'
p1292
F0.99999999930033967
sS'x(2,F)'
p1293
F1
sS'x(15,T)'
p1294
F0.99999999993416611
sS'x(40,D)'
p1295
F0.9999999973624415
sS'x(31,V)'
p1296
F0.99999999771962556
sS'x(22,D)'
p1297
F0.99999999902789938
sS'x(13,K)'
p1298
F0.99999999949854168
sS'x(41,Y)'
p1299
F1.0000000054782214
sS'x(5,A)'
p1300
F0.99999999880308355
sS'x(20,L)'
p1301
F1
sS'x(34,A)'
p1302
F0.99999999993416611
sS'x(33,G)'
p1303
F0.99999999903630366
sS'x(23,A)'
p1304
F0.99999999965542252
sS'x(37,A)'
p1305
F1.0000000048485973
sS'x(42,L)'
p1306
F0.9999999981405423
sS'x(8,K)'
p1307
F1.000000002026844
sS'x(50,R)'
p1308
F1
sS'x(26,T)'
p1309
F0.99999999981230336
ssbag2
(g3
g4
NtRp1310
(dp1311
g7
Nsg8
(F17381.110089886006
F-224.80875247998716
tp1312
sg10
(S'D'
S'D'
S'A'
S'V'
S'G'
S'A'
S'M'
S'T'
S'T'
S'K'
S'V'
S'L'
S'G'
S'G'
S'D'
S'K'
S'E'
S'K'
S'V'
S'F'
S'A'
S'T'
S'A'
S'Q'
S'A'
S'K'
S'D'
S'V'
S'T'
S'A'
S'V'
S'K'
S'G'
S'G'
S'E'
S'K'
S'A'
S'T'
S'E'
S'Q'
S'L'
S'D'
S'M'
S'Y'
S'D'
S'A'
S'R'
S'A'
S'D'
S'K'
S'L'
tp1313
sg12
(dp1314
S'x(39,A)'
p1315
F0.99999998308145555
sS'x(43,G)'
p1316
F1.0000000040785777
sS'x(14,D)'
p1317
F1.0000000013595258
sS'x(3,Q)'
p1318
F1
sS'x(17,V)'
p1319
F0.99999999728094824
sS'x(21,G)'
p1320
F0.99999999728094824
sS'x(51,D)'
p1321
F1
sS'x(25,D)'
p1322
F1.0000000040785777
sS'x(24,K)'
p1323
F1.0000000027190519
sS'x(6,A)'
p1324
F1.0000000054381035
sS'x(46,K)'
p1325
F1.0000000027190519
sS'x(36,D)'
p1326
F1.0000000040785777
sS'x(29,E)'
p1327
F1.0000000149547847
sS'x(32,V)'
p1328
F1.0000000067976296
sS'y(A1101,5)'
p1329
F0.94309669476647973
sS'x(45,A)'
p1330
F1.0000000237161739
sS'x(4,T)'
p1331
F1.0000000067976296
sS'x(9,L)'
p1332
F0.99999998716003324
sS'x(18,D)'
p1333
F1.0000000067976296
sS'x(47,E)'
p1334
F0.99999998444098148
sS'x(12,A)'
p1335
F1.0000000067976296
sS'x(48,Q)'
p1336
F1
sS'x(7,D)'
p1337
F1.0000000067976296
sS'x(16,V)'
p1338
F1.0000000442601207
sS'x(10,G)'
p1339
F1.0000000182780704
sS'x(28,K)'
p1340
F1.0000000054381035
sS'x(22,G)'
p1341
F1.0000000114804408
sS'x(27,V)'
p1342
F0.99999997492430015
sS'x(11,A)'
p1343
F1.0000000067976296
sS'x(1,M)'
p1344
F1
sS'x(30,K)'
p1345
F1
sS'x(38,T)'
p1346
F0.99999998308145555
sS'x(19,T)'
p1347
F1.0000000027190519
sS'x(35,K)'
p1348
F1.0000000040785777
sS'x(31,V)'
p1349
F0.99999998987908501
sS'x(44,E)'
p1350
F0.99999998776426691
sS'x(2,F)'
p1351
F1
sS'x(15,T)'
p1352
F1.0000000244714662
sS'x(40,D)'
p1353
F1.0000000197886547
sS'x(49,M)'
p1354
F1
sS'x(13,K)'
p1355
F1.0000000027190519
sS'x(41,Y)'
p1356
F0.99999997628382609
sS'x(5,A)'
p1357
F1.0000000095166812
sS'x(20,L)'
p1358
F0.99999997220524839
sS'x(34,A)'
p1359
F0.99999998172192961
sS'x(33,G)'
p1360
F1.0000000374624913
sS'y(A1101,22)'
p1361
F1.0118192727162327
sS'x(23,A)'
p1362
F0.9999999918428446
sS'x(37,A)'
p1363
F1.0000000122357331
sS'x(42,L)'
p1364
F0.99999998444098148
sS'x(8,K)'
p1365
F0.99999998851955907
sS'x(50,R)'
p1366
F1
sS'x(26,T)'
p1367
F1.0000000054381035
ssbag2
(g3
g4
NtRp1368
(dp1369
g7
Nsg8
(F17381.111089886006
F-224.80875319166807
tp1370
sg10
(S'D'
S'D'
S'A'
S'V'
S'G'
S'A'
S'M'
S'T'
S'T'
S'K'
S'V'
S'L'
S'G'
S'G'
S'D'
S'K'
S'E'
S'K'
S'V'
S'F'
S'A'
S'T'
S'A'
S'Q'
S'A'
S'K'
S'D'
S'V'
S'T'
S'A'
S'V'
S'K'
S'G'
S'G'
S'E'
S'K'
S'A'
S'T'
S'E'
S'Q'
S'L'
S'D'
S'M'
S'Y'
S'D'
S'A'
S'R'
S'A'
S'D'
S'K'
S'L'
tp1371
sg12
(dp1372
S'x(39,A)'
p1373
F1
sS'x(43,G)'
p1374
F1
sS'x(14,D)'
p1375
F1
sS'x(3,Q)'
p1376
F1
sS'x(17,V)'
p1377
F1
sS'x(21,G)'
p1378
F1
sS'x(51,D)'
p1379
F1
sS'x(25,D)'
p1380
F1
sS'x(24,K)'
p1381
F1
sS'x(6,A)'
p1382
F1
sS'x(46,K)'
p1383
F1
sS'x(36,D)'
p1384
F1
sS'x(29,E)'
p1385
F1
sS'x(32,V)'
p1386
F1
sS'y(A1101,5)'
p1387
F0.94309675595152109
sS'x(45,A)'
p1388
F1
sS'x(4,T)'
p1389
F1
sS'x(9,L)'
p1390
F1
sS'x(18,D)'
p1391
F1
sS'x(47,E)'
p1392
F1
sS'x(12,A)'
p1393
F1
sS'x(48,Q)'
p1394
F1
sS'x(7,D)'
p1395
F1
sS'x(16,V)'
p1396
F1
sS'x(10,G)'
p1397
F1
sS'x(28,K)'
p1398
F1
sS'x(22,G)'
p1399
F1
sS'x(27,V)'
p1400
F1
sS'x(11,A)'
p1401
F1
sS'x(1,M)'
p1402
F1
sS'x(30,K)'
p1403
F1
sS'x(38,T)'
p1404
F1
sS'x(19,T)'
p1405
F1
sS'x(35,K)'
p1406
F1
sS'x(31,V)'
p1407
F1
sS'x(44,E)'
p1408
F1
sS'x(2,F)'
p1409
F1
sS'x(15,T)'
p1410
F1
sS'x(40,D)'
p1411
F1
sS'x(49,M)'
p1412
F1
sS'x(13,K)'
p1413
F1
sS'x(41,Y)'
p1414
F1
sS'x(5,A)'
p1415
F1
sS'x(20,L)'
p1416
F1
sS'x(34,A)'
p1417
F1
sS'x(33,G)'
p1418
F1
sS'y(A1101,22)'
p1419
F1.0118193566604416
sS'x(23,A)'
p1420
F1
sS'x(37,A)'
p1421
F1
sS'x(42,L)'
p1422
F1
sS'x(8,K)'
p1423
F1
sS'x(50,R)'
p1424
F1
sS'x(26,T)'
p1425
F1
ssbag2
(g3
g4
NtRp1426
(dp1427
g7
Nsg8
(F17550.849591061677
F-225.14462052207966
tp1428
sg10
(S'D'
S'D'
S'A'
S'V'
S'G'
S'A'
S'M'
S'T'
S'T'
S'K'
S'V'
S'L'
S'G'
S'D'
S'K'
S'E'
S'K'
S'V'
S'D'
S'F'
S'A'
S'T'
S'A'
S'Q'
S'A'
S'K'
S'D'
S'V'
S'T'
S'A'
S'V'
S'K'
S'G'
S'G'
S'E'
S'K'
S'A'
S'T'
S'E'
S'Q'
S'L'
S'D'
S'M'
S'Y'
S'D'
S'A'
S'R'
S'A'
S'D'
S'K'
S'L'
tp1429
sg12
(dp1430
S'x(39,A)'
p1431
F1
sS'x(43,G)'
p1432
F1
sS'x(14,D)'
p1433
F1
sS'x(3,Q)'
p1434
F1
sS'x(17,V)'
p1435
F1
sS'x(21,G)'
p1436
F0.99999928992502995
sS'x(51,D)'
p1437
F1
sS'x(25,D)'
p1438
F1
sS'x(24,K)'
p1439
F1
sS'x(6,A)'
p1440
F1
sS'x(46,K)'
p1441
F1
sS'x(36,D)'
p1442
F1
sS'x(29,E)'
p1443
F1
sS'x(32,V)'
p1444
F1
sS'y(A1101,5)'
p1445
F0.94309675595152109
sS'x(45,A)'
p1446
F1
sS'x(4,T)'
p1447
F1
sS'x(9,L)'
p1448
F1
sS'x(18,D)'
p1449
F1
sS'x(47,E)'
p1450
F1
sS'x(12,A)'
p1451
F1
sS'x(48,Q)'
p1452
F1
sS'x(7,D)'
p1453
F1
sS'x(16,V)'
p1454
F1
sS'x(10,G)'
p1455
F1
sS'x(28,K)'
p1456
F1
sS'x(27,V)'
p1457
F1
sS'x(11,A)'
p1458
F1
sS'x(1,M)'
p1459
F1
sS'x(30,K)'
p1460
F1
sS'x(38,T)'
p1461
F1
sS'x(19,T)'
p1462
F1
sS'x(35,K)'
p1463
F1
sS'x(49,M)'
p1464
F1
sS'x(31,V)'
p1465
F1
sS'x(44,E)'
p1466
F1
sS'x(2,F)'
p1467
F1
sS'x(15,T)'
p1468
F1
sS'x(40,D)'
p1469
F1
sS'x(22,D)'
p1470
F0.99999928992502995
sS'x(13,K)'
p1471
F1
sS'x(41,Y)'
p1472
F1
sS'x(5,A)'
p1473
F1
sS'x(20,L)'
p1474
F1
sS'x(34,A)'
p1475
F1
sS'x(33,G)'
p1476
F1
sS'x(23,A)'
p1477
F1
sS'x(37,A)'
p1478
F1
sS'x(42,L)'
p1479
F1
sS'x(8,K)'
p1480
F1
sS'x(50,R)'
p1481
F1
sS'x(26,T)'
p1482
F1
ssbag2
(g3
g4
NtRp1483
(dp1484
g7
Nsg8
(F17550.851503031594
F-225.14462070277659
tp1485
sg10
(S'D'
S'D'
S'A'
S'V'
S'G'
S'A'
S'M'
S'T'
S'T'
S'K'
S'V'
S'L'
S'G'
S'D'
S'K'
S'E'
S'K'
S'V'
S'D'
S'F'
S'A'
S'T'
S'A'
S'Q'
S'A'
S'K'
S'D'
S'V'
S'T'
S'A'
S'V'
S'K'
S'G'
S'G'
S'E'
S'K'
S'A'
S'T'
S'E'
S'Q'
S'L'
S'D'
S'M'
S'Y'
S'D'
S'A'
S'R'
S'A'
S'D'
S'K'
S'L'
tp1486
sg12
(dp1487
S'x(39,A)'
p1488
F1
sS'x(43,G)'
p1489
F1
sS'x(14,D)'
p1490
F1
sS'x(3,Q)'
p1491
F1
sS'x(17,V)'
p1492
F1
sS'x(21,G)'
p1493
F1
sS'x(51,D)'
p1494
F1
sS'x(25,D)'
p1495
F1
sS'x(24,K)'
p1496
F1
sS'x(6,A)'
p1497
F1
sS'x(46,K)'
p1498
F1
sS'x(36,D)'
p1499
F1
sS'x(29,E)'
p1500
F1
sS'x(32,V)'
p1501
F1
sS'y(A1101,5)'
p1502
F0.94309675595152109
sS'x(45,A)'
p1503
F1
sS'x(4,T)'
p1504
F1
sS'x(9,L)'
p1505
F1
sS'x(18,D)'
p1506
F1
sS'x(47,E)'
p1507
F1
sS'x(12,A)'
p1508
F1
sS'x(48,Q)'
p1509
F1
sS'x(7,D)'
p1510
F1
sS'x(16,V)'
p1511
F1
sS'x(10,G)'
p1512
F1
sS'x(28,K)'
p1513
F1
sS'x(27,V)'
p1514
F1
sS'x(11,A)'
p1515
F1
sS'x(1,M)'
p1516
F1
sS'x(30,K)'
p1517
F1
sS'x(38,T)'
p1518
F1
sS'x(19,T)'
p1519
F1
sS'x(35,K)'
p1520
F1
sS'x(49,M)'
p1521
F1
sS'x(31,V)'
p1522
F1
sS'x(44,E)'
p1523
F1
sS'x(2,F)'
p1524
F1
sS'x(15,T)'
p1525
F1
sS'x(40,D)'
p1526
F1
sS'x(22,D)'
p1527
F1
sS'x(13,K)'
p1528
F1
sS'x(41,Y)'
p1529
F1
sS'x(5,A)'
p1530
F1
sS'x(20,L)'
p1531
F1
sS'x(34,A)'
p1532
F1
sS'x(33,G)'
p1533
F1
sS'x(23,A)'
p1534
F1
sS'x(37,A)'
p1535
F1
sS'x(42,L)'
p1536
F1
sS'x(8,K)'
p1537
F1
sS'x(50,R)'
p1538
F1
sS'x(26,T)'
p1539
F1
ssbag2
(g3
g4
NtRp1540
(dp1541
g7
Nsg8
(F18321.223077245719
F-225.25301299901909
tp1542
sg10
(S'D'
S'D'
S'A'
S'V'
S'G'
S'A'
S'M'
S'T'
S'T'
S'K'
S'V'
S'L'
S'D'
S'K'
S'E'
S'K'
S'K'
S'T'
S'D'
S'F'
S'A'
S'T'
S'A'
S'Q'
S'A'
S'K'
S'D'
S'V'
S'T'
S'A'
S'V'
S'K'
S'G'
S'G'
S'K'
S'E'
S'K'
S'T'
S'E'
S'Q'
S'L'
S'D'
S'M'
S'Y'
S'D'
S'A'
S'R'
S'A'
S'D'
S'K'
S'L'
tp1543
sg12
(dp1544
S'x(39,A)'
p1545
F1
sS'x(43,G)'
p1546
F1
sS'x(14,D)'
p1547
F1
sS'x(45,K)'
p1548
F1
sS'x(3,Q)'
p1549
F1
sS'x(17,V)'
p1550
F1
sS'x(51,D)'
p1551
F1
sS'x(25,D)'
p1552
F1
sS'x(24,K)'
p1553
F1
sS'x(6,A)'
p1554
F1
sS'x(46,K)'
p1555
F1
sS'x(36,D)'
p1556
F1
sS'x(29,E)'
p1557
F1
sS'x(32,V)'
p1558
F1
sS'y(A1101,5)'
p1559
F0.94309575595152406
sS'x(4,T)'
p1560
F1
sS'x(9,L)'
p1561
F1
sS'x(18,D)'
p1562
F1
sS'x(47,E)'
p1563
F1
sS'x(12,A)'
p1564
F1
sS'x(21,K)'
p1565
F1
sS'x(48,Q)'
p1566
F1
sS'x(7,D)'
p1567
F1
sS'x(16,V)'
p1568
F1
sS'x(10,G)'
p1569
F1
sS'x(28,K)'
p1570
F1
sS'x(11,A)'
p1571
F1
sS'x(1,M)'
p1572
F1
sS'x(30,K)'
p1573
F1
sS'x(38,T)'
p1574
F1
sS'x(19,T)'
p1575
F1
sS'x(35,K)'
p1576
F1
sS'x(49,M)'
p1577
F1
sS'x(27,T)'
p1578
F1
sS'x(44,E)'
p1579
F1
sS'x(2,F)'
p1580
F1
sS'x(15,T)'
p1581
F1
sS'x(40,D)'
p1582
F1
sS'x(31,V)'
p1583
F1
sS'x(22,D)'
p1584
F1
sS'x(13,K)'
p1585
F1
sS'x(41,Y)'
p1586
F1
sS'x(5,A)'
p1587
F1
sS'x(20,L)'
p1588
F1
sS'x(34,A)'
p1589
F1
sS'x(33,G)'
p1590
F1
sS'x(23,A)'
p1591
F1
sS'x(37,A)'
p1592
F1
sS'x(42,L)'
p1593
F1
sS'x(8,K)'
p1594
F1
sS'x(50,R)'
p1595
F1
sS'x(26,T)'
p1596
F1
ssbag2
(g3
g4
NtRp1597
(dp1598
g7
Nsg8
(F18321.224077245723
F-225.25301299901909
tp1599
sg10
(S'D'
S'D'
S'A'
S'V'
S'G'
S'A'
S'M'
S'T'
S'T'
S'K'
S'V'
S'L'
S'D'
S'K'
S'E'
S'K'
S'K'
S'T'
S'D'
S'F'
S'A'
S'T'
S'A'
S'Q'
S'A'
S'K'
S'D'
S'V'
S'T'
S'A'
S'V'
S'K'
S'G'
S'G'
S'K'
S'E'
S'K'
S'T'
S'E'
S'Q'
S'L'
S'D'
S'M'
S'Y'
S'D'
S'A'
S'R'
S'A'
S'D'
S'K'
S'L'
tp1600
sg12
(dp1601
S'x(39,A)'
p1602
F1
sS'x(43,G)'
p1603
F1
sS'x(14,D)'
p1604
F1
sS'x(45,K)'
p1605
F1
sS'x(3,Q)'
p1606
F1
sS'x(17,V)'
p1607
F1
sS'x(51,D)'
p1608
F1
sS'x(25,D)'
p1609
F1
sS'x(24,K)'
p1610
F1
sS'x(6,A)'
p1611
F1
sS'x(46,K)'
p1612
F1
sS'x(36,D)'
p1613
F1
sS'x(29,E)'
p1614
F1
sS'x(32,V)'
p1615
F1
sS'y(A1101,5)'
p1616
F0.94309675595152109
sS'x(4,T)'
p1617
F1
sS'x(9,L)'
p1618
F1
sS'x(18,D)'
p1619
F1
sS'x(47,E)'
p1620
F1
sS'x(12,A)'
p1621
F1
sS'x(21,K)'
p1622
F1
sS'x(48,Q)'
p1623
F1
sS'x(7,D)'
p1624
F1
sS'x(16,V)'
p1625
F1
sS'x(10,G)'
p1626
F1
sS'x(28,K)'
p1627
F1
sS'x(11,A)'
p1628
F1
sS'x(1,M)'
p1629
F1
sS'x(30,K)'
p1630
F1
sS'x(38,T)'
p1631
F1
sS'x(19,T)'
p1632
F1
sS'x(35,K)'
p1633
F1
sS'x(49,M)'
p1634
F1
sS'x(27,T)'
p1635
F1
sS'x(44,E)'
p1636
F1
sS'x(2,F)'
p1637
F1
sS'x(15,T)'
p1638
F1
sS'x(40,D)'
p1639
F1
sS'x(31,V)'
p1640
F1
sS'x(22,D)'
p1641
F1
sS'x(13,K)'
p1642
F1
sS'x(41,Y)'
p1643
F1
sS'x(5,A)'
p1644
F1
sS'x(20,L)'
p1645
F1
sS'x(34,A)'
p1646
F1
sS'x(33,G)'
p1647
F1
sS'x(23,A)'
p1648
F1
sS'x(37,A)'
p1649
F1
sS'x(42,L)'
p1650
F1
sS'x(8,K)'
p1651
F1
sS'x(50,R)'
p1652
F1
sS'x(26,T)'
p1653
F1
ssbag2
(g3
g4
NtRp1654
(dp1655
g7
Nsg8
(F18960.9210781375
F-225.57471389650181
tp1656
sg10
(S'D'
S'D'
S'A'
S'V'
S'G'
S'A'
S'M'
S'T'
S'T'
S'K'
S'V'
S'L'
S'G'
S'D'
S'K'
S'S'
S'E'
S'V'
S'K'
S'F'
S'A'
S'T'
S'A'
S'Q'
S'A'
S'K'
S'D'
S'V'
S'T'
S'A'
S'V'
S'K'
S'G'
S'G'
S'E'
S'A'
S'T'
S'E'
S'Q'
S'K'
S'L'
S'D'
S'M'
S'Y'
S'D'
S'A'
S'R'
S'A'
S'E'
S'K'
S'L'
tp1657
sg12
(dp1658
S'x(39,A)'
p1659
F1
sS'x(43,G)'
p1660
F1
sS'x(14,D)'
p1661
F1
sS'x(3,Q)'
p1662
F1
sS'x(17,V)'
p1663
F1
sS'x(21,G)'
p1664
F1
sS'x(51,D)'
p1665
F1
sS'x(25,D)'
p1666
F1
sS'x(24,K)'
p1667
F1
sS'x(6,A)'
p1668
F1
sS'x(22,S)'
p1669
F1
sS'x(15,T)'
p1670
F1
sS'x(36,D)'
p1671
F1
sS'x(29,E)'
p1672
F1
sS'x(32,V)'
p1673
F1
sS'x(27,V)'
p1674
F1
sS'x(45,A)'
p1675
F1
sS'x(4,T)'
p1676
F1
sS'x(9,L)'
p1677
F1
sS'x(18,D)'
p1678
F1
sS'x(47,E)'
p1679
F1
sS'x(12,A)'
p1680
F1
sS'x(48,Q)'
p1681
F1
sS'x(16,V)'
p1682
F1
sS'x(10,G)'
p1683
F1
sS'x(28,K)'
p1684
F1
sS'x(11,A)'
p1685
F1
sS'x(1,M)'
p1686
F1
sS'x(30,K)'
p1687
F1
sS'x(38,T)'
p1688
F1
sS'x(19,T)'
p1689
F1
sS'x(35,K)'
p1690
F1
sS'x(46,K)'
p1691
F1
sS'x(31,V)'
p1692
F1
sS'x(44,E)'
p1693
F1
sS'x(2,F)'
p1694
F1
sS'x(40,D)'
p1695
F1
sS'x(49,M)'
p1696
F1
sS'x(13,K)'
p1697
F1
sS'x(41,Y)'
p1698
F1
sS'x(5,A)'
p1699
F1
sS'x(20,L)'
p1700
F1
sS'x(34,A)'
p1701
F1
sS'x(33,G)'
p1702
F1
sS'x(7,E)'
p1703
F1
sS'x(23,A)'
p1704
F1
sS'x(37,A)'
p1705
F1
sS'x(42,L)'
p1706
F1
sS'x(8,K)'
p1707
F1
sS'x(50,R)'
p1708
F1
sS'x(26,T)'
p1709
F1
ssbag2
(g3
g4
NtRp1710
(dp1711
g7
Nsg8
(F18960.922902029997
F-225.57471461052774
tp1712
sg10
(S'D'
S'D'
S'A'
S'V'
S'G'
S'A'
S'M'
S'T'
S'T'
S'K'
S'V'
S'L'
S'G'
S'D'
S'K'
S'S'
S'E'
S'V'
S'K'
S'F'
S'A'
S'T'
S'A'
S'Q'
S'A'
S'K'
S'D'
S'V'
S'T'
S'A'
S'V'
S'K'
S'G'
S'G'
S'E'
S'A'
S'T'
S'E'
S'Q'
S'K'
S'L'
S'D'
S'M'
S'Y'
S'D'
S'A'
S'R'
S'A'
S'E'
S'K'
S'L'
tp1713
sg12
(dp1714
S'x(39,A)'
p1715
F1
sS'x(43,G)'
p1716
F1
sS'x(14,D)'
p1717
F1
sS'x(3,Q)'
p1718
F1
sS'x(17,V)'
p1719
F1
sS'x(21,G)'
p1720
F1
sS'x(51,D)'
p1721
F1
sS'x(25,D)'
p1722
F1
sS'x(24,K)'
p1723
F1
sS'x(6,A)'
p1724
F1
sS'x(22,S)'
p1725
F1
sS'x(15,T)'
p1726
F1
sS'x(36,D)'
p1727
F1
sS'x(29,E)'
p1728
F1
sS'x(32,V)'
p1729
F1
sS'x(27,V)'
p1730
F1
sS'x(45,A)'
p1731
F1
sS'x(4,T)'
p1732
F1
sS'x(9,L)'
p1733
F1
sS'x(18,D)'
p1734
F1
sS'x(47,E)'
p1735
F1
sS'x(12,A)'
p1736
F1
sS'x(48,Q)'
p1737
F1
sS'x(16,V)'
p1738
F1
sS'x(10,G)'
p1739
F1
sS'x(28,K)'
p1740
F1
sS'x(11,A)'
p1741
F1
sS'x(1,M)'
p1742
F1
sS'x(30,K)'
p1743
F1
sS'x(38,T)'
p1744
F1
sS'x(19,T)'
p1745
F1
sS'x(35,K)'
p1746
F1
sS'x(46,K)'
p1747
F1
sS'x(31,V)'
p1748
F1
sS'x(44,E)'
p1749
F1
sS'x(2,F)'
p1750
F1
sS'x(40,D)'
p1751
F1
sS'x(49,M)'
p1752
F1
sS'x(13,K)'
p1753
F1
sS'x(41,Y)'
p1754
F1
sS'x(5,A)'
p1755
F1
sS'x(20,L)'
p1756
F1
sS'x(34,A)'
p1757
F1
sS'x(33,G)'
p1758
F1
sS'x(7,E)'
p1759
F1
sS'x(23,A)'
p1760
F1
sS'x(37,A)'
p1761
F1
sS'x(42,L)'
p1762
F1
sS'x(8,K)'
p1763
F1
sS'x(50,R)'
p1764
F1
sS'x(26,T)'
p1765
F1
ssbag2
(g3
g4
NtRp1766
(dp1767
g7
Nsg8
(F18990.163473477951
F-225.91016298315213
tp1768
sg10
(S'D'
S'D'
S'A'
S'V'
S'G'
S'A'
S'M'
S'T'
S'T'
S'K'
S'V'
S'L'
S'G'
S'D'
S'K'
S'E'
S'K'
S'T'
S'D'
S'F'
S'A'
S'T'
S'A'
S'Q'
S'A'
S'K'
S'D'
S'V'
S'T'
S'A'
S'V'
S'K'
S'G'
S'G'
S'K'
S'E'
S'K'
S'T'
S'E'
S'Q'
S'L'
S'D'
S'M'
S'Y'
S'D'
S'A'
S'R'
S'A'
S'D'
S'K'
S'L'
tp1769
sg12
(dp1770
S'x(39,A)'
p1771
F0.99999997330006229
sS'x(43,G)'
p1772
F1
sS'x(14,D)'
p1773
F1
sS'x(45,K)'
p1774
F0.99999993325015579
sS'x(3,Q)'
p1775
F1
sS'x(17,V)'
p1776
F0.99999990655021809
sS'x(21,G)'
p1777
F0.99999806425451931
sS'x(51,D)'
p1778
F1
sS'x(25,D)'
p1779
F1
sS'x(24,K)'
p1780
F0.99999997330006229
sS'x(6,A)'
p1781
F0.999999919900187
sS'x(46,K)'
p1782
F1
sS'x(36,D)'
p1783
F0.99999997330006229
sS'x(29,E)'
p1784
F0.99999997330006229
sS'x(32,V)'
p1785
F0.9999999599500935
sS'y(A1101,5)'
p1786
F0.94309645442675327
sS'x(4,T)'
p1787
F0.99999993325015579
sS'x(9,L)'
p1788
F1
sS'x(18,D)'
p1789
F0.9999999599500935
sS'x(47,E)'
p1790
F0.99999997330006229
sS'x(12,A)'
p1791
F0.9999999599500935
sS'x(48,Q)'
p1792
F1
sS'x(7,D)'
p1793
F0.99999989320024918
sS'x(16,V)'
p1794
F1
sS'x(10,G)'
p1795
F1
sS'x(28,K)'
p1796
F0.99999986650031158
sS'x(11,A)'
p1797
F0.99999989320024918
sS'x(1,M)'
p1798
F1
sS'x(30,K)'
p1799
F1
sS'x(38,T)'
p1800
F1
sS'x(19,T)'
p1801
F0.9999999599500935
sS'x(35,K)'
p1802
F0.99999997330006252
sS'x(49,M)'
p1803
F1
sS'x(27,T)'
p1804
F1
sS'x(44,E)'
p1805
F0.9999999599500935
sS'x(2,F)'
p1806
F1
sS'x(15,T)'
p1807
F0.99999993325015579
sS'x(40,D)'
p1808
F0.99999989320024918
sS'x(31,V)'
p1809
F1
sS'x(22,D)'
p1810
F1
sS'x(13,K)'
p1811
F1
sS'x(41,Y)'
p1812
F0.99999993325015579
sS'x(5,A)'
p1813
F0.999999919900187
sS'x(20,L)'
p1814
F1
sS'x(34,A)'
p1815
F0.9999999599500935
sS'x(33,G)'
p1816
F0.99999993325015568
sS'x(23,A)'
p1817
F0.9999999599500935
sS'x(37,A)'
p1818
F0.99999990655021809
sS'x(42,L)'
p1819
F0.9999999599500935
sS'x(8,K)'
p1820
F0.99999994660012459
sS'x(50,R)'
p1821
F1
sS'x(26,T)'
p1822
F0.999999919900187
ssbag2
(g3
g4
NtRp1823
(dp1824
g7
Nsg8
(F18990.165225649325
F-225.91016340249914
tp1825
sg10
(S'D'
S'D'
S'A'
S'V'
S'G'
S'A'
S'M'
S'T'
S'T'
S'K'
S'V'
S'L'
S'G'
S'D'
S'K'
S'E'
S'K'
S'T'
S'D'
S'F'
S'A'
S'T'
S'A'
S'Q'
S'A'
S'K'
S'D'
S'V'
S'T'
S'A'
S'V'
S'K'
S'G'
S'G'
S'K'
S'E'
S'K'
S'T'
S'E'
S'Q'
S'L'
S'D'
S'M'
S'Y'
S'D'
S'A'
S'R'
S'A'
S'D'
S'K'
S'L'
tp1826
sg12
(dp1827
S'x(39,A)'
p1828
F1
sS'x(43,G)'
p1829
F1
sS'x(14,D)'
p1830
F1
sS'x(45,K)'
p1831
F1
sS'x(3,Q)'
p1832
F1
sS'x(17,V)'
p1833
F1
sS'x(21,G)'
p1834
F1
sS'x(51,D)'
p1835
F1
sS'x(25,D)'
p1836
F1
sS'x(24,K)'
p1837
F1
sS'x(6,A)'
p1838
F1
sS'x(46,K)'
p1839
F1
sS'x(36,D)'
p1840
F1
sS'x(29,E)'
p1841
F1
sS'x(32,V)'
p1842
F1
sS'y(A1101,5)'
p1843
F0.94309675595152109
sS'x(4,T)'
p1844
F1
sS'x(9,L)'
p1845
F1
sS'x(18,D)'
p1846
F1
sS'x(47,E)'
p1847
F1
sS'x(12,A)'
p1848
F1
sS'x(48,Q)'
p1849
F1
sS'x(7,D)'
p1850
F1
sS'x(16,V)'
p1851
F1
sS'x(10,G)'
p1852
F1
sS'x(28,K)'
p1853
F1
sS'x(11,A)'
p1854
F1
sS'x(1,M)'
p1855
F1
sS'x(30,K)'
p1856
F1
sS'x(38,T)'
p1857
F1
sS'x(19,T)'
p1858
F1
sS'x(35,K)'
p1859
F1
sS'x(49,M)'
p1860
F1
sS'x(27,T)'
p1861
F1
sS'x(44,E)'
p1862
F1
sS'x(2,F)'
p1863
F1
sS'x(15,T)'
p1864
F1
sS'x(40,D)'
p1865
F1
sS'x(31,V)'
p1866
F1
sS'x(22,D)'
p1867
F1
sS'x(13,K)'
p1868
F1
sS'x(41,Y)'
p1869
F1
sS'x(5,A)'
p1870
F1
sS'x(20,L)'
p1871
F1
sS'x(34,A)'
p1872
F1
sS'x(33,G)'
p1873
F1
sS'x(23,A)'
p1874
F1
sS'x(37,A)'
p1875
F1
sS'x(42,L)'
p1876
F1
sS'x(8,K)'
p1877
F1
sS'x(50,R)'
p1878
F1
sS'x(26,T)'
p1879
F1
ssbag2
(g3
g4
NtRp1880
(dp1881
g7
Nsg8
(F19015.218130961865
F-226.16977691466923
tp1882
sg10
(S'D'
S'D'
S'A'
S'V'
S'G'
S'A'
S'M'
S'T'
S'T'
S'K'
S'V'
S'L'
S'D'
S'K'
S'E'
S'K'
S'V'
S'T'
S'D'
S'F'
S'A'
S'T'
S'A'
S'Q'
S'A'
S'K'
S'D'
S'V'
S'T'
S'A'
S'V'
S'K'
S'G'
S'G'
S'K'
S'E'
S'K'
S'T'
S'E'
S'Q'
S'L'
S'D'
S'M'
S'Y'
S'D'
S'A'
S'R'
S'A'
S'D'
S'K'
S'L'
tp1883
sg12
(dp1884
S'x(39,A)'
p1885
F0.99999999865230549
sS'x(43,G)'
p1886
F0.9999999656866414
sS'x(14,D)'
p1887
F1.0000000136751352
sS'x(45,K)'
p1888
F0.99999996276663661
sS'x(3,Q)'
p1889
F1
sS'x(17,V)'
p1890
F1.0000000291471964
sS'x(51,D)'
p1891
F1
sS'x(25,D)'
p1892
F0.99999988383402039
sS'x(24,K)'
p1893
F0.99999998093408682
sS'x(6,A)'
p1894
F1.0000000215234737
sS'x(46,K)'
p1895
F1.0000000069498756
sS'x(36,D)'
p1896
F1.0000000069498756
sS'x(29,E)'
p1897
F1.0000000138997509
sS'x(32,V)'
p1898
F0.99999998788396227
sS'y(A1101,5)'
p1899
F0.9430966979279799
sS'x(4,T)'
p1900
F1.0000000123274408
sS'x(9,L)'
p1901
F0.99999997958639231
sS'x(18,D)'
p1902
F1.0000000123274408
sS'x(47,E)'
p1903
F0.99999999618153224
sS'x(12,A)'
p1904
F1.0000000224219368
sS'x(48,Q)'
p1905
F1
sS'x(7,D)'
p1906
F1.0000000123274408
sS'x(16,V)'
p1907
F1.0000000125520565
sS'x(10,G)'
p1908
F0.99999997533190588
sS'x(28,K)'
p1909
F1.0000000201757793
sS'x(21,V)'
p1910
F0.99999994191701014
sS'x(11,A)'
p1911
F1.0000000123274408
sS'x(1,M)'
p1912
F1
sS'x(30,K)'
p1913
F1
sS'x(38,T)'
p1914
F0.99999997263651685
sS'x(19,T)'
p1915
F1.0000000138997509
sS'x(35,K)'
p1916
F1.0000000069498756
sS'x(49,M)'
p1917
F1
sS'x(27,T)'
p1918
F1.000000027363483
sS'x(44,E)'
p1919
F1.0000000069498756
sS'x(2,F)'
p1920
F1
sS'x(15,T)'
p1921
F0.99999999618153224
sS'x(40,D)'
p1922
F0.99999998429011039
sS'x(31,V)'
p1923
F1.0000000192773162
sS'x(22,D)'
p1924
F0.99999997780267902
sS'x(13,K)'
p1925
F0.99999998810857804
sS'x(41,Y)'
p1926
F0.99999996276663661
sS'x(5,A)'
p1927
F0.99999998183254979
sS'x(20,L)'
p1928
F1.0000000378939979
sS'x(34,A)'
p1929
F0.99999997263651685
sS'x(33,G)'
p1930
F1.0000000123274408
sS'x(23,A)'
p1931
F1.0000000224219368
sS'x(37,A)'
p1932
F1.0000000484377254
sS'x(42,L)'
p1933
F0.99999998788396227
sS'x(8,K)'
p1934
F1.0000000396909239
sS'x(50,R)'
p1935
F1
sS'x(26,T)'
p1936
F1.0000000215234737
ssbag2
(g3
g4
NtRp1937
(dp1938
g7
Nsg8
(F19015.219130961865
F-226.1697770243627
tp1939
sg10
(S'D'
S'D'
S'A'
S'V'
S'G'
S'A'
S'M'
S'T'
S'T'
S'K'
S'V'
S'L'
S'D'
S'K'
S'E'
S'K'
S'V'
S'T'
S'D'
S'F'
S'A'
S'T'
S'A'
S'Q'
S'A'
S'K'
S'D'
S'V'
S'T'
S'A'
S'V'
S'K'
S'G'
S'G'
S'K'
S'E'
S'K'
S'T'
S'E'
S'Q'
S'L'
S'D'
S'M'
S'Y'
S'D'
S'A'
S'R'
S'A'
S'D'
S'K'
S'L'
tp1940
sg12
(dp1941
S'x(39,A)'
p1942
F1
sS'x(43,G)'
p1943
F1
sS'x(14,D)'
p1944
F1
sS'x(45,K)'
p1945
F1
sS'x(3,Q)'
p1946
F1
sS'x(17,V)'
p1947
F1
sS'x(51,D)'
p1948
F1
sS'x(25,D)'
p1949
F1
sS'x(24,K)'
p1950
F1
sS'x(6,A)'
p1951
F1
sS'x(46,K)'
p1952
F1
sS'x(36,D)'
p1953
F1
sS'x(29,E)'
p1954
F1
sS'x(32,V)'
p1955
F1
sS'y(A1101,5)'
p1956
F0.94309675595152109
sS'x(4,T)'
p1957
F1
sS'x(9,L)'
p1958
F1
sS'x(18,D)'
p1959
F1
sS'x(47,E)'
p1960
F1
sS'x(12,A)'
p1961
F1
sS'x(48,Q)'
p1962
F1
sS'x(7,D)'
p1963
F1
sS'x(16,V)'
p1964
F1
sS'x(10,G)'
p1965
F1
sS'x(28,K)'
p1966
F1
sS'x(21,V)'
p1967
F1
sS'x(11,A)'
p1968
F1
sS'x(1,M)'
p1969
F1
sS'x(30,K)'
p1970
F1
sS'x(38,T)'
p1971
F1
sS'x(19,T)'
p1972
F1
sS'x(35,K)'
p1973
F1
sS'x(49,M)'
p1974
F1
sS'x(27,T)'
p1975
F1
sS'x(44,E)'
p1976
F1
sS'x(2,F)'
p1977
F1
sS'x(15,T)'
p1978
F1
sS'x(40,D)'
p1979
F1
sS'x(31,V)'
p1980
F1
sS'x(22,D)'
p1981
F1
sS'x(13,K)'
p1982
F1
sS'x(41,Y)'
p1983
F1
sS'x(5,A)'
p1984
F1
sS'x(20,L)'
p1985
F1
sS'x(34,A)'
p1986
F1
sS'x(33,G)'
p1987
F1
sS'x(23,A)'
p1988
F1
sS'x(37,A)'
p1989
F1
sS'x(42,L)'
p1990
F1
sS'x(8,K)'
p1991
F1
sS'x(50,R)'
p1992
F1
sS'x(26,T)'
p1993
F1
ssbag2
(g3
g4
NtRp1994
(dp1995
g7
Nsg8
(F20538.066475255633
F-226.32426713121822
tp1996
sg10
(S'D'
S'A'
S'D'
S'A'
S'V'
S'A'
S'M'
S'T'
S'T'
S'K'
S'V'
S'L'
S'D'
S'K'
S'E'
S'K'
S'V'
S'D'
S'T'
S'F'
S'A'
S'T'
S'A'
S'Q'
S'A'
S'K'
S'D'
S'V'
S'T'
S'A'
S'A'
S'K'
S'G'
S'G'
S'E'
S'K'
S'T'
S'E'
S'Q'
S'L'
S'D'
S'M'
S'Y'
S'K'
S'D'
S'A'
S'R'
S'A'
S'D'
S'K'
S'L'
tp1997
sg12
(dp1998
S'x(39,A)'
p1999
F1
sS'x(43,G)'
p2000
F1
sS'x(14,D)'
p2001
F1
sS'x(10,A)'
p2002
F1
sS'x(3,Q)'
p2003
F1
sS'x(17,V)'
p2004
F1
sS'x(51,D)'
p2005
F1
sS'x(25,D)'
p2006
F1
sS'x(24,K)'
p2007
F1
sS'x(6,A)'
p2008
F1
sS'x(46,K)'
p2009
F1
sS'x(36,D)'
p2010
F1
sS'x(29,E)'
p2011
F1
sS'x(32,V)'
p2012
F1
sS'x(28,K)'
p2013
F1
sS'x(4,T)'
p2014
F1
sS'x(9,L)'
p2015
F1
sS'x(18,D)'
p2016
F1
sS'x(47,E)'
p2017
F1
sS'x(12,A)'
p2018
F1
sS'x(48,Q)'
p2019
F1
sS'x(7,D)'
p2020
F1
sS'x(16,V)'
p2021
F1
sS'x(21,V)'
p2022
F1
sS'x(11,A)'
p2023
F1
sS'x(1,M)'
p2024
F1
sS'x(30,K)'
p2025
F1
sS'x(38,T)'
p2026
F1
sS'x(19,T)'
p2027
F1
sS'x(35,K)'
p2028
F1
sS'x(49,M)'
p2029
F1
sS'x(27,T)'
p2030
F1
sS'x(44,E)'
p2031
F1
sS'x(2,F)'
p2032
F1
sS'x(15,T)'
p2033
F1
sS'x(31,A)'
p2034
F1
sS'x(40,D)'
p2035
F1
sS'x(22,D)'
p2036
F1
sS'x(13,K)'
p2037
F1
sS'x(41,Y)'
p2038
F1
sS'x(5,A)'
p2039
F1
sS'x(45,K)'
p2040
F1
sS'x(20,L)'
p2041
F1
sS'x(34,A)'
p2042
F1
sS'x(33,G)'
p2043
F1
sS'x(23,A)'
p2044
F1
sS'x(37,A)'
p2045
F1
sS'x(42,L)'
p2046
F1
sS'x(8,K)'
p2047
F1
sS'x(50,R)'
p2048
F1
sS'x(26,T)'
p2049
F1
ssbag2
(g3
g4
NtRp2050
(dp2051
g7
Nsg8
(F20538.067475255637
F-226.32426713121822
tp2052
sg10
(S'D'
S'A'
S'D'
S'A'
S'V'
S'A'
S'M'
S'T'
S'T'
S'K'
S'V'
S'L'
S'D'
S'K'
S'E'
S'K'
S'V'
S'D'
S'T'
S'F'
S'A'
S'T'
S'A'
S'Q'
S'A'
S'K'
S'D'
S'V'
S'T'
S'A'
S'A'
S'K'
S'G'
S'G'
S'E'
S'K'
S'T'
S'E'
S'Q'
S'L'
S'D'
S'M'
S'Y'
S'K'
S'D'
S'A'
S'R'
S'A'
S'D'
S'K'
S'L'
tp2053
sg12
(dp2054
S'x(39,A)'
p2055
F1
sS'x(43,G)'
p2056
F1
sS'x(14,D)'
p2057
F1
sS'x(10,A)'
p2058
F1
sS'x(3,Q)'
p2059
F1
sS'x(17,V)'
p2060
F1
sS'x(51,D)'
p2061
F1
sS'x(25,D)'
p2062
F1
sS'x(24,K)'
p2063
F1
sS'x(6,A)'
p2064
F1
sS'x(46,K)'
p2065
F1
sS'x(36,D)'
p2066
F1
sS'x(29,E)'
p2067
F1
sS'x(32,V)'
p2068
F1
sS'x(28,K)'
p2069
F1
sS'x(4,T)'
p2070
F1
sS'x(9,L)'
p2071
F1
sS'x(18,D)'
p2072
F1
sS'x(47,E)'
p2073
F1
sS'x(12,A)'
p2074
F1
sS'x(48,Q)'
p2075
F1
sS'x(7,D)'
p2076
F1
sS'x(16,V)'
p2077
F1
sS'x(21,V)'
p2078
F1
sS'x(11,A)'
p2079
F1
sS'x(1,M)'
p2080
F1
sS'x(30,K)'
p2081
F1
sS'x(38,T)'
p2082
F1
sS'x(19,T)'
p2083
F1
sS'x(35,K)'
p2084
F1
sS'x(49,M)'
p2085
F1
sS'x(27,T)'
p2086
F1
sS'x(44,E)'
p2087
F1
sS'x(2,F)'
p2088
F1
sS'x(15,T)'
p2089
F1
sS'x(31,A)'
p2090
F1
sS'x(40,D)'
p2091
F1
sS'x(22,D)'
p2092
F1
sS'x(13,K)'
p2093
F1
sS'x(41,Y)'
p2094
F1
sS'x(5,A)'
p2095
F1
sS'x(45,K)'
p2096
F1
sS'x(20,L)'
p2097
F1
sS'x(34,A)'
p2098
F1
sS'x(33,G)'
p2099
F1
sS'x(23,A)'
p2100
F1
sS'x(37,A)'
p2101
F1
sS'x(42,L)'
p2102
F1
sS'x(8,K)'
p2103
F1
sS'x(50,R)'
p2104
F1
sS'x(26,T)'
p2105
F1
ssbag2
(g3
g4
NtRp2106
(dp2107
g7
Nsg8
(F20932.184215293102
F-226.62919975330715
tp2108
sg10
(S'D'
S'D'
S'A'
S'V'
S'G'
S'A'
S'M'
S'T'
S'T'
S'K'
S'V'
S'L'
S'D'
S'K'
S'E'
S'V'
S'K'
S'K'
S'D'
S'F'
S'A'
S'T'
S'A'
S'Q'
S'A'
S'K'
S'D'
S'V'
S'T'
S'A'
S'V'
S'K'
S'G'
S'G'
S'K'
S'E'
S'K'
S'T'
S'E'
S'Q'
S'L'
S'D'
S'M'
S'Y'
S'D'
S'A'
S'R'
S'A'
S'E'
S'K'
S'L'
tp2109
sg12
(dp2110
S'x(39,A)'
p2111
F1
sS'x(43,G)'
p2112
F1.0000003593007993
sS'x(14,D)'
p2113
F1
sS'x(45,K)'
p2114
F1
sS'x(3,Q)'
p2115
F1
sS'x(17,V)'
p2116
F0.99999964069920066
sS'x(51,D)'
p2117
F1
sS'x(25,D)'
p2118
F1
sS'x(24,K)'
p2119
F1
sS'x(6,A)'
p2120
F1
sS'x(46,K)'
p2121
F1
sS'x(36,D)'
p2122
F1
sS'x(29,E)'
p2123
F1
sS'x(32,V)'
p2124
F1
sS'x(27,V)'
p2125
F1
sS'x(4,T)'
p2126
F1
sS'x(9,L)'
p2127
F1
sS'x(18,D)'
p2128
F1
sS'x(47,E)'
p2129
F1
sS'x(12,A)'
p2130
F1
sS'x(21,K)'
p2131
F1
sS'x(48,Q)'
p2132
F1
sS'x(16,V)'
p2133
F1
sS'x(10,G)'
p2134
F1
sS'x(28,K)'
p2135
F1
sS'x(11,A)'
p2136
F1
sS'x(1,M)'
p2137
F1
sS'x(30,K)'
p2138
F1
sS'x(38,T)'
p2139
F1
sS'x(19,T)'
p2140
F1
sS'x(35,K)'
p2141
F1
sS'x(49,M)'
p2142
F1
sS'x(31,V)'
p2143
F1
sS'x(44,E)'
p2144
F1
sS'x(2,F)'
p2145
F1
sS'x(15,T)'
p2146
F1
sS'x(40,D)'
p2147
F1
sS'x(22,D)'
p2148
F1
sS'x(13,K)'
p2149
F1
sS'x(41,Y)'
p2150
F1
sS'x(5,A)'
p2151
F1
sS'x(20,L)'
p2152
F1
sS'x(34,A)'
p2153
F1
sS'x(33,G)'
p2154
F1
sS'x(7,E)'
p2155
F1
sS'x(23,A)'
p2156
F1
sS'x(37,A)'
p2157
F1
sS'x(42,L)'
p2158
F1
sS'x(8,K)'
p2159
F1
sS'x(50,R)'
p2160
F1
sS'x(26,T)'
p2161
F1
ssbag2
(g3
g4
NtRp2162
(dp2163
g7
Nsg8
(F20932.185215293102
F-226.62919997208516
tp2164
sg10
(S'D'
S'D'
S'A'
S'V'
S'G'
S'A'
S'M'
S'T'
S'T'
S'K'
S'V'
S'L'
S'D'
S'K'
S'E'
S'V'
S'K'
S'K'
S'D'
S'F'
S'A'
S'T'
S'A'
S'Q'
S'A'
S'K'
S'D'
S'V'
S'T'
S'A'
S'V'
S'K'
S'G'
S'G'
S'K'
S'E'
S'K'
S'T'
S'E'
S'Q'
S'L'
S'D'
S'M'
S'Y'
S'D'
S'A'
S'R'
S'A'
S'E'
S'K'
S'L'
tp2165
sg12
(dp2166
S'x(39,A)'
p2167
F1
sS'x(43,G)'
p2168
F1
sS'x(14,D)'
p2169
F1
sS'x(45,K)'
p2170
F1
sS'x(3,Q)'
p2171
F1
sS'x(17,V)'
p2172
F1
sS'x(51,D)'
p2173
F1
sS'x(25,D)'
p2174
F1
sS'x(24,K)'
p2175
F1
sS'x(6,A)'
p2176
F1
sS'x(46,K)'
p2177
F1
sS'x(36,D)'
p2178
F1
sS'x(29,E)'
p2179
F1
sS'x(32,V)'
p2180
F1
sS'x(27,V)'
p2181
F1
sS'x(4,T)'
p2182
F1
sS'x(9,L)'
p2183
F1
sS'x(18,D)'
p2184
F1
sS'x(47,E)'
p2185
F1
sS'x(12,A)'
p2186
F1
sS'x(21,K)'
p2187
F1
sS'x(48,Q)'
p2188
F1
sS'x(16,V)'
p2189
F1
sS'x(10,G)'
p2190
F1
sS'x(28,K)'
p2191
F1
sS'x(11,A)'
p2192
F1
sS'x(1,M)'
p2193
F1
sS'x(30,K)'
p2194
F1
sS'x(38,T)'
p2195
F1
sS'x(19,T)'
p2196
F1
sS'x(35,K)'
p2197
F1
sS'x(49,M)'
p2198
F1
sS'x(31,V)'
p2199
F1
sS'x(44,E)'
p2200
F1
sS'x(2,F)'
p2201
F1
sS'x(15,T)'
p2202
F1
sS'x(40,D)'
p2203
F1
sS'x(22,D)'
p2204
F1
sS'x(13,K)'
p2205
F1
sS'x(41,Y)'
p2206
F1
sS'x(5,A)'
p2207
F1
sS'x(20,L)'
p2208
F1
sS'x(34,A)'
p2209
F1
sS'x(33,G)'
p2210
F1
sS'x(7,E)'
p2211
F1
sS'x(23,A)'
p2212
F1
sS'x(37,A)'
p2213
F1
sS'x(42,L)'
p2214
F1
sS'x(8,K)'
p2215
F1
sS'x(50,R)'
p2216
F1
sS'x(26,T)'
p2217
F1
ssbag2
(g3
g4
NtRp2218
(dp2219
g7
Nsg8
(F21540.803232028386
F-226.7051512716919
tp2220
sg10
(S'D'
S'D'
S'A'
S'V'
S'G'
S'A'
S'M'
S'T'
S'T'
S'K'
S'V'
S'L'
S'G'
S'D'
S'K'
S'E'
S'V'
S'K'
S'G'
S'F'
S'A'
S'T'
S'A'
S'Q'
S'A'
S'K'
S'D'
S'V'
S'T'
S'A'
S'V'
S'K'
S'G'
S'G'
S'K'
S'E'
S'K'
S'T'
S'E'
S'Q'
S'L'
S'D'
S'M'
S'Y'
S'D'
S'A'
S'R'
S'A'
S'E'
S'K'
S'L'
tp2221
sg12
(dp2222
S'x(39,A)'
p2223
F0.99999997910801874
sS'x(43,G)'
p2224
F0.99999999098828107
sS'x(14,D)'
p2225
F1.0000000033523939
sS'x(45,K)'
p2226
F0.99999999780539151
sS'x(3,Q)'
p2227
F1
sS'x(17,V)'
p2228
F1.0000000096856538
sS'x(21,G)'
p2229
F0.99999991565877777
sS'x(51,D)'
p2230
F1
sS'x(25,D)'
p2231
F1.0000000291260831
sS'x(24,K)'
p2232
F0.99999999866077038
sS'x(6,A)'
p2233
F1.0000000096856538
sS'x(46,K)'
p2234
F0.9999999914721317
sS'x(36,D)'
p2235
F1.0000000105410327
sS'x(29,E)'
p2236
F1.0000000210820654
sS'x(32,V)'
p2237
F1.0000000168742926
sS'x(27,V)'
p2238
F1.0000000273030027
sS'x(4,T)'
p2239
F1.0000000316230981
sS'x(9,L)'
p2240
F0.9999999054763129
sS'x(18,D)'
p2241
F1.0000000168742926
sS'x(47,E)'
p2242
F0.99999997910801874
sS'x(12,A)'
p2243
F1.0000000020131645
sS'x(48,Q)'
p2244
F1
sS'x(16,V)'
p2245
F1.0000000294630504
sS'x(10,G)'
p2246
F1.0000000008553789
sS'x(28,K)'
p2247
F1.0000000309534836
sS'x(22,G)'
p2248
F0.99999997541865726
sS'x(11,A)'
p2249
F1.0000000316230981
sS'x(1,M)'
p2250
F1
sS'x(30,K)'
p2251
F1
sS'x(38,T)'
p2252
F0.99999989493528019
sS'x(19,T)'
p2253
F1.0000000210820654
sS'x(35,K)'
p2254
F1.0000000105410327
sS'x(31,V)'
p2255
F0.99999991601734561
sS'x(44,E)'
p2256
F1.0000000105410327
sS'x(2,F)'
p2257
F1
sS'x(15,T)'
p2258
F0.9999999829442634
sS'x(40,D)'
p2259
F1.0000000311392476
sS'x(49,M)'
p2260
F1
sS'x(13,K)'
p2261
F0.99999998811973767
sS'x(41,Y)'
p2262
F1.0000000316230981
sS'x(5,A)'
p2263
F1.0000000063332599
sS'y(A1101,22)'
p2264
F1.011819477516527
sS'x(20,L)'
p2265
F0.9999999054763129
sS'x(34,A)'
p2266
F1.0000000020131645
sS'x(33,G)'
p2267
F1.0000000125541972
sS'x(7,E)'
p2268
F0.99999998610657326
sS'x(23,A)'
p2269
F1.0000000020131645
sS'x(37,A)'
p2270
F0.99999994912655665
sS'x(42,L)'
p2271
F1.0000000015293138
sS'x(8,K)'
p2272
F1.0000000067047881
sS'x(50,R)'
p2273
F1
sS'x(26,T)'
p2274
F1.0000000244344596
ssbag2
(g3
g4
NtRp2275
(dp2276
g7
Nsg8
(F21540.804232028386
F-226.70515139499912
tp2277
sg10
(S'D'
S'D'
S'A'
S'V'
S'G'
S'A'
S'M'
S'T'
S'T'
S'K'
S'V'
S'L'
S'G'
S'D'
S'K'
S'E'
S'V'
S'K'
S'G'
S'F'
S'A'
S'T'
S'A'
S'Q'
S'A'
S'K'
S'D'
S'V'
S'T'
S'A'
S'V'
S'K'
S'G'
S'G'
S'K'
S'E'
S'K'
S'T'
S'E'
S'Q'
S'L'
S'D'
S'M'
S'Y'
S'D'
S'A'
S'R'
S'A'
S'E'
S'K'
S'L'
tp2278
sg12
(dp2279
S'x(39,A)'
p2280
F1
sS'x(43,G)'
p2281
F1
sS'x(14,D)'
p2282
F1
sS'x(45,K)'
p2283
F1
sS'x(3,Q)'
p2284
F1
sS'x(17,V)'
p2285
F1
sS'x(21,G)'
p2286
F1
sS'x(51,D)'
p2287
F1
sS'x(25,D)'
p2288
F1
sS'x(24,K)'
p2289
F1
sS'x(6,A)'
p2290
F1
sS'x(46,K)'
p2291
F1
sS'x(36,D)'
p2292
F1
sS'x(29,E)'
p2293
F1
sS'x(32,V)'
p2294
F1
sS'x(27,V)'
p2295
F1
sS'x(4,T)'
p2296
F1
sS'x(9,L)'
p2297
F1
sS'x(18,D)'
p2298
F1
sS'x(47,E)'
p2299
F1
sS'x(12,A)'
p2300
F1
sS'x(48,Q)'
p2301
F1
sS'x(16,V)'
p2302
F1
sS'x(10,G)'
p2303
F1
sS'x(28,K)'
p2304
F1
sS'x(22,G)'
p2305
F1
sS'x(11,A)'
p2306
F1
sS'x(1,M)'
p2307
F1
sS'x(30,K)'
p2308
F1
sS'x(38,T)'
p2309
F1
sS'x(19,T)'
p2310
F1
sS'x(35,K)'
p2311
F1
sS'x(31,V)'
p2312
F1
sS'x(44,E)'
p2313
F1
sS'x(2,F)'
p2314
F1
sS'x(15,T)'
p2315
F1
sS'x(40,D)'
p2316
F1
sS'x(49,M)'
p2317
F1
sS'x(13,K)'
p2318
F1
sS'x(41,Y)'
p2319
F1
sS'x(5,A)'
p2320
F1
sS'y(A1101,22)'
p2321
F1.0118193566604416
sS'x(20,L)'
p2322
F1
sS'x(34,A)'
p2323
F1
sS'x(33,G)'
p2324
F1
sS'x(7,E)'
p2325
F1
sS'x(23,A)'
p2326
F1
sS'x(37,A)'
p2327
F1
sS'x(42,L)'
p2328
F1
sS'x(8,K)'
p2329
F1
sS'x(50,R)'
p2330
F1
sS'x(26,T)'
p2331
F1
ssbag2
(g3
g4
NtRp2332
(dp2333
g7
Nsg8
(F21710.54364517397
F-227.02494830010636
tp2334
sg10
(S'D'
S'D'
S'A'
S'V'
S'G'
S'A'
S'M'
S'T'
S'T'
S'K'
S'V'
S'L'
S'G'
S'D'
S'K'
S'E'
S'V'
S'K'
S'D'
S'F'
S'A'
S'T'
S'A'
S'Q'
S'A'
S'K'
S'D'
S'V'
S'T'
S'A'
S'V'
S'K'
S'G'
S'G'
S'K'
S'E'
S'K'
S'T'
S'E'
S'Q'
S'L'
S'D'
S'M'
S'Y'
S'D'
S'A'
S'R'
S'A'
S'E'
S'K'
S'L'
tp2335
sg12
(dp2336
S'x(39,A)'
p2337
F1
sS'x(43,G)'
p2338
F1
sS'x(14,D)'
p2339
F1
sS'x(45,K)'
p2340
F1
sS'x(3,Q)'
p2341
F1
sS'x(17,V)'
p2342
F1
sS'x(21,G)'
p2343
F1
sS'x(51,D)'
p2344
F1
sS'x(25,D)'
p2345
F1
sS'x(24,K)'
p2346
F1
sS'x(6,A)'
p2347
F1
sS'x(46,K)'
p2348
F1
sS'x(36,D)'
p2349
F1
sS'x(29,E)'
p2350
F1
sS'x(32,V)'
p2351
F1
sS'x(27,V)'
p2352
F1
sS'x(4,T)'
p2353
F1
sS'x(9,L)'
p2354
F1
sS'x(18,D)'
p2355
F1
sS'x(47,E)'
p2356
F1
sS'x(12,A)'
p2357
F1
sS'x(48,Q)'
p2358
F1
sS'x(16,V)'
p2359
F1
sS'x(10,G)'
p2360
F1
sS'x(28,K)'
p2361
F1
sS'x(11,A)'
p2362
F1
sS'x(1,M)'
p2363
F1
sS'x(30,K)'
p2364
F1
sS'x(38,T)'
p2365
F1
sS'x(19,T)'
p2366
F1
sS'x(35,K)'
p2367
F1
sS'x(49,M)'
p2368
F1
sS'x(31,V)'
p2369
F1
sS'x(44,E)'
p2370
F1
sS'x(2,F)'
p2371
F1
sS'x(15,T)'
p2372
F1
sS'x(40,D)'
p2373
F1
sS'x(22,D)'
p2374
F1
sS'x(13,K)'
p2375
F1
sS'x(41,Y)'
p2376
F1
sS'x(5,A)'
p2377
F1
sS'x(20,L)'
p2378
F1
sS'x(34,A)'
p2379
F1
sS'x(33,G)'
p2380
F1
sS'x(7,E)'
p2381
F1
sS'x(23,A)'
p2382
F1
sS'x(37,A)'
p2383
F1
sS'x(42,L)'
p2384
F1
sS'x(8,K)'
p2385
F1
sS'x(50,R)'
p2386
F1
sS'x(26,T)'
p2387
F1
ssbag2
(g3
g4
NtRp2388
(dp2389
g7
Nsg8
(F21710.54464517397
F-227.02494833577654
tp2390
sg10
(S'D'
S'D'
S'A'
S'V'
S'G'
S'A'
S'M'
S'T'
S'T'
S'K'
S'V'
S'L'
S'G'
S'D'
S'K'
S'E'
S'V'
S'K'
S'D'
S'F'
S'A'
S'T'
S'A'
S'Q'
S'A'
S'K'
S'D'
S'V'
S'T'
S'A'
S'V'
S'K'
S'G'
S'G'
S'K'
S'E'
S'K'
S'T'
S'E'
S'Q'
S'L'
S'D'
S'M'
S'Y'
S'D'
S'A'
S'R'
S'A'
S'E'
S'K'
S'L'
tp2391
sg12
(dp2392
S'x(39,A)'
p2393
F1
sS'x(43,G)'
p2394
F1
sS'x(14,D)'
p2395
F1
sS'x(45,K)'
p2396
F1
sS'x(3,Q)'
p2397
F1
sS'x(17,V)'
p2398
F1
sS'x(21,G)'
p2399
F1
sS'x(51,D)'
p2400
F1
sS'x(25,D)'
p2401
F1
sS'x(24,K)'
p2402
F1
sS'x(6,A)'
p2403
F1
sS'x(46,K)'
p2404
F1
sS'x(36,D)'
p2405
F1
sS'x(29,E)'
p2406
F1
sS'x(32,V)'
p2407
F1
sS'x(27,V)'
p2408
F1
sS'x(4,T)'
p2409
F1
sS'x(9,L)'
p2410
F1
sS'x(18,D)'
p2411
F1
sS'x(47,E)'
p2412
F1
sS'x(12,A)'
p2413
F1
sS'x(48,Q)'
p2414
F1
sS'x(16,V)'
p2415
F1
sS'x(10,G)'
p2416
F1
sS'x(28,K)'
p2417
F1
sS'x(11,A)'
p2418
F1
sS'x(1,M)'
p2419
F1
sS'x(30,K)'
p2420
F1
sS'x(38,T)'
p2421
F1
sS'x(19,T)'
p2422
F1
sS'x(35,K)'
p2423
F1
sS'x(49,M)'
p2424
F1
sS'x(31,V)'
p2425
F1
sS'x(44,E)'
p2426
F1
sS'x(2,F)'
p2427
F1
sS'x(15,T)'
p2428
F1
sS'x(40,D)'
p2429
F1
sS'x(22,D)'
p2430
F1
sS'x(13,K)'
p2431
F1
sS'x(41,Y)'
p2432
F1
sS'x(5,A)'
p2433
F1
sS'x(20,L)'
p2434
F1
sS'x(34,A)'
p2435
F1
sS'x(33,G)'
p2436
F1
sS'x(7,E)'
p2437
F1
sS'x(23,A)'
p2438
F1
sS'x(37,A)'
p2439
F1
sS'x(42,L)'
p2440
F1
sS'x(8,K)'
p2441
F1
sS'x(50,R)'
p2442
F1
sS'x(26,T)'
p2443
F1
ssbag2
(g3
g4
NtRp2444
(dp2445
g7
Nsg8
(F23641.119133019711
F-227.60040994844164
tp2446
sg10
(S'D'
S'D'
S'A'
S'V'
S'G'
S'A'
S'M'
S'T'
S'T'
S'K'
S'V'
S'L'
S'G'
S'V'
S'D'
S'K'
S'E'
S'V'
S'D'
S'F'
S'A'
S'T'
S'A'
S'Q'
S'A'
S'K'
S'D'
S'V'
S'T'
S'A'
S'V'
S'K'
S'G'
S'G'
S'K'
S'E'
S'K'
S'T'
S'E'
S'Q'
S'L'
S'D'
S'M'
S'Y'
S'D'
S'A'
S'R'
S'A'
S'D'
S'K'
S'L'
tp2447
sg12
(dp2448
S'x(39,A)'
p2449
F1
sS'x(43,G)'
p2450
F1
sS'x(14,D)'
p2451
F1
sS'x(45,K)'
p2452
F1
sS'x(3,Q)'
p2453
F1
sS'x(17,V)'
p2454
F1
sS'x(21,G)'
p2455
F1
sS'x(51,D)'
p2456
F1
sS'x(28,V)'
p2457
F1
sS'x(25,D)'
p2458
F1
sS'x(24,K)'
p2459
F1
sS'x(6,A)'
p2460
F1
sS'x(46,K)'
p2461
F1
sS'x(36,D)'
p2462
F1
sS'x(29,E)'
p2463
F1
sS'x(32,V)'
p2464
F1
sS'y(A1101,5)'
p2465
F0.94309675595152109
sS'x(4,T)'
p2466
F1
sS'x(9,L)'
p2467
F1
sS'x(18,D)'
p2468
F1
sS'x(47,E)'
p2469
F1
sS'x(12,A)'
p2470
F1
sS'x(48,Q)'
p2471
F1
sS'x(7,D)'
p2472
F1
sS'x(16,V)'
p2473
F1
sS'x(10,G)'
p2474
F1
sS'x(27,V)'
p2475
F1
sS'x(11,A)'
p2476
F1
sS'x(1,M)'
p2477
F1
sS'x(30,K)'
p2478
F1
sS'x(38,T)'
p2479
F1
sS'x(19,T)'
p2480
F1
sS'x(35,K)'
p2481
F1
sS'x(49,M)'
p2482
F1
sS'x(31,V)'
p2483
F1
sS'x(44,E)'
p2484
F1
sS'x(2,F)'
p2485
F1
sS'x(15,T)'
p2486
F1
sS'x(40,D)'
p2487
F1
sS'x(22,D)'
p2488
F1
sS'x(13,K)'
p2489
F1
sS'x(41,Y)'
p2490
F1
sS'x(5,A)'
p2491
F1
sS'x(20,L)'
p2492
F1
sS'x(34,A)'
p2493
F1
sS'x(33,G)'
p2494
F1
sS'x(23,A)'
p2495
F1
sS'x(37,A)'
p2496
F1
sS'x(42,L)'
p2497
F1
sS'x(8,K)'
p2498
F1
sS'x(50,R)'
p2499
F1
sS'x(26,T)'
p2500
F1
ssbag2
(g3
g4
NtRp2501
(dp2502
g7
Nsg8
(F23641.120133019715
F-227.60040994844164
tp2503
sg10
(S'D'
S'D'
S'A'
S'V'
S'G'
S'A'
S'M'
S'T'
S'T'
S'K'
S'V'
S'L'
S'G'
S'V'
S'D'
S'K'
S'E'
S'V'
S'D'
S'F'
S'A'
S'T'
S'A'
S'Q'
S'A'
S'K'
S'D'
S'V'
S'T'
S'A'
S'V'
S'K'
S'G'
S'G'
S'K'
S'E'
S'K'
S'T'
S'E'
S'Q'
S'L'
S'D'
S'M'
S'Y'
S'D'
S'A'
S'R'
S'A'
S'D'
S'K'
S'L'
tp2504
sg12
(dp2505
S'x(39,A)'
p2506
F1
sS'x(43,G)'
p2507
F1
sS'x(14,D)'
p2508
F1
sS'x(45,K)'
p2509
F1
sS'x(3,Q)'
p2510
F1
sS'x(17,V)'
p2511
F1
sS'x(21,G)'
p2512
F1
sS'x(51,D)'
p2513
F1
sS'x(28,V)'
p2514
F1
sS'x(25,D)'
p2515
F1
sS'x(24,K)'
p2516
F1
sS'x(6,A)'
p2517
F1
sS'x(46,K)'
p2518
F1
sS'x(36,D)'
p2519
F1
sS'x(29,E)'
p2520
F1
sS'x(32,V)'
p2521
F1
sS'y(A1101,5)'
p2522
F0.94309675595152109
sS'x(4,T)'
p2523
F1
sS'x(9,L)'
p2524
F1
sS'x(18,D)'
p2525
F1
sS'x(47,E)'
p2526
F1
sS'x(12,A)'
p2527
F1
sS'x(48,Q)'
p2528
F1
sS'x(7,D)'
p2529
F1
sS'x(16,V)'
p2530
F1
sS'x(10,G)'
p2531
F1
sS'x(27,V)'
p2532
F1
sS'x(11,A)'
p2533
F1
sS'x(1,M)'
p2534
F1
sS'x(30,K)'
p2535
F1
sS'x(38,T)'
p2536
F1
sS'x(19,T)'
p2537
F1
sS'x(35,K)'
p2538
F1
sS'x(49,M)'
p2539
F1
sS'x(31,V)'
p2540
F1
sS'x(44,E)'
p2541
F1
sS'x(2,F)'
p2542
F1
sS'x(15,T)'
p2543
F1
sS'x(40,D)'
p2544
F1
sS'x(22,D)'
p2545
F1
sS'x(13,K)'
p2546
F1
sS'x(41,Y)'
p2547
F1
sS'x(5,A)'
p2548
F1
sS'x(20,L)'
p2549
F1
sS'x(34,A)'
p2550
F1
sS'x(33,G)'
p2551
F1
sS'x(23,A)'
p2552
F1
sS'x(37,A)'
p2553
F1
sS'x(42,L)'
p2554
F1
sS'x(8,K)'
p2555
F1
sS'x(50,R)'
p2556
F1
sS'x(26,T)'
p2557
F1
ssbag2
(g3
g4
NtRp2558
(dp2559
g7
Nsg8
(F24423.44030949664
F-227.8883774090209
tp2560
sg10
(S'D'
S'D'
S'A'
S'V'
S'G'
S'A'
S'M'
S'T'
S'T'
S'K'
S'V'
S'L'
S'G'
S'D'
S'K'
S'E'
S'K'
S'V'
S'D'
S'F'
S'A'
S'T'
S'A'
S'Q'
S'A'
S'K'
S'D'
S'V'
S'L'
S'T'
S'A'
S'K'
S'G'
S'G'
S'K'
S'E'
S'K'
S'T'
S'E'
S'Q'
S'L'
S'D'
S'M'
S'Y'
S'D'
S'A'
S'R'
S'A'
S'D'
S'K'
S'L'
tp2561
sg12
(dp2562
S'x(39,A)'
p2563
F1
sS'x(43,G)'
p2564
F1
sS'x(14,D)'
p2565
F1
sS'x(45,K)'
p2566
F1
sS'x(3,Q)'
p2567
F1
sS'x(17,V)'
p2568
F1
sS'x(21,G)'
p2569
F1
sS'x(51,D)'
p2570
F1
sS'x(25,D)'
p2571
F1
sS'x(24,K)'
p2572
F1
sS'x(6,A)'
p2573
F1
sS'x(46,K)'
p2574
F1
sS'x(36,D)'
p2575
F1
sS'x(29,E)'
p2576
F1
sS'x(32,V)'
p2577
F1
sS'y(A1101,5)'
p2578
F0.94309675595152109
sS'x(4,T)'
p2579
F1
sS'x(9,L)'
p2580
F1
sS'x(18,D)'
p2581
F1
sS'x(47,E)'
p2582
F1
sS'x(12,A)'
p2583
F1
sS'x(48,Q)'
p2584
F1
sS'x(7,D)'
p2585
F1
sS'x(16,V)'
p2586
F1
sS'x(10,G)'
p2587
F1
sS'x(28,K)'
p2588
F1
sS'x(27,V)'
p2589
F1
sS'x(11,A)'
p2590
F1
sS'x(31,L)'
p2591
F1
sS'x(1,M)'
p2592
F1
sS'x(30,K)'
p2593
F1
sS'x(38,T)'
p2594
F1
sS'x(19,T)'
p2595
F1
sS'x(35,K)'
p2596
F1
sS'x(49,M)'
p2597
F1
sS'x(44,E)'
p2598
F1
sS'x(2,F)'
p2599
F1
sS'x(15,T)'
p2600
F1
sS'x(40,D)'
p2601
F1
sS'x(22,D)'
p2602
F1
sS'x(13,K)'
p2603
F1
sS'x(41,Y)'
p2604
F1
sS'x(5,A)'
p2605
F1
sS'x(20,L)'
p2606
F1
sS'x(34,A)'
p2607
F1
sS'x(33,G)'
p2608
F1
sS'x(23,A)'
p2609
F1
sS'x(37,A)'
p2610
F1
sS'x(42,L)'
p2611
F1
sS'x(8,K)'
p2612
F1
sS'x(50,R)'
p2613
F1
sS'x(26,T)'
p2614
F1
ssbag2
(g3
g4
NtRp2615
(dp2616
g7
Nsg8
(F24423.441309496637
F-227.8883774090209
tp2617
sg10
(S'D'
S'D'
S'A'
S'V'
S'G'
S'A'
S'M'
S'T'
S'T'
S'K'
S'V'
S'L'
S'G'
S'D'
S'K'
S'E'
S'K'
S'V'
S'D'
S'F'
S'A'
S'T'
S'A'
S'Q'
S'A'
S'K'
S'D'
S'V'
S'L'
S'T'
S'A'
S'K'
S'G'
S'G'
S'K'
S'E'
S'K'
S'T'
S'E'
S'Q'
S'L'
S'D'
S'M'
S'Y'
S'D'
S'A'
S'R'
S'A'
S'D'
S'K'
S'L'
tp2618
sg12
(dp2619
S'x(39,A)'
p2620
F1
sS'x(43,G)'
p2621
F1
sS'x(14,D)'
p2622
F1
sS'x(45,K)'
p2623
F1
sS'x(3,Q)'
p2624
F1
sS'x(17,V)'
p2625
F1
sS'x(21,G)'
p2626
F1
sS'x(51,D)'
p2627
F1
sS'x(25,D)'
p2628
F1
sS'x(24,K)'
p2629
F1
sS'x(6,A)'
p2630
F1
sS'x(46,K)'
p2631
F1
sS'x(36,D)'
p2632
F1
sS'x(29,E)'
p2633
F1
sS'x(32,V)'
p2634
F1
sS'y(A1101,5)'
p2635
F0.94309675595152109
sS'x(4,T)'
p2636
F1
sS'x(9,L)'
p2637
F1
sS'x(18,D)'
p2638
F1
sS'x(47,E)'
p2639
F1
sS'x(12,A)'
p2640
F1
sS'x(48,Q)'
p2641
F1
sS'x(7,D)'
p2642
F1
sS'x(16,V)'
p2643
F1
sS'x(10,G)'
p2644
F1
sS'x(28,K)'
p2645
F1
sS'x(27,V)'
p2646
F1
sS'x(11,A)'
p2647
F1
sS'x(31,L)'
p2648
F1
sS'x(1,M)'
p2649
F1
sS'x(30,K)'
p2650
F1
sS'x(38,T)'
p2651
F1
sS'x(19,T)'
p2652
F1
sS'x(35,K)'
p2653
F1
sS'x(49,M)'
p2654
F1
sS'x(44,E)'
p2655
F1
sS'x(2,F)'
p2656
F1
sS'x(15,T)'
p2657
F1
sS'x(40,D)'
p2658
F1
sS'x(22,D)'
p2659
F1
sS'x(13,K)'
p2660
F1
sS'x(41,Y)'
p2661
F1
sS'x(5,A)'
p2662
F1
sS'x(20,L)'
p2663
F1
sS'x(34,A)'
p2664
F1
sS'x(33,G)'
p2665
F1
sS'x(23,A)'
p2666
F1
sS'x(37,A)'
p2667
F1
sS'x(42,L)'
p2668
F1
sS'x(8,K)'
p2669
F1
sS'x(50,R)'
p2670
F1
sS'x(26,T)'
p2671
F1
ssbag2
(g3
g4
NtRp2672
(dp2673
g7
Nsg8
(F26639.148999600726
F-228.17181533845766
tp2674
sg10
(S'D'
S'V'
S'D'
S'A'
S'V'
S'A'
S'M'
S'T'
S'T'
S'K'
S'V'
S'L'
S'V'
S'D'
S'K'
S'E'
S'V'
S'V'
S'D'
S'F'
S'A'
S'T'
S'A'
S'Q'
S'A'
S'K'
S'D'
S'V'
S'T'
S'A'
S'V'
S'K'
S'G'
S'G'
S'K'
S'E'
S'K'
S'T'
S'E'
S'Q'
S'L'
S'D'
S'M'
S'Y'
S'D'
S'A'
S'R'
S'A'
S'D'
S'K'
S'L'
tp2675
sg12
(dp2676
S'x(39,A)'
p2677
F1
sS'x(43,G)'
p2678
F1
sS'x(14,D)'
p2679
F1
sS'x(45,K)'
p2680
F1
sS'x(3,Q)'
p2681
F1
sS'x(17,V)'
p2682
F1
sS'x(51,D)'
p2683
F1
sS'x(28,V)'
p2684
F1
sS'x(25,D)'
p2685
F1
sS'x(24,K)'
p2686
F1
sS'x(6,A)'
p2687
F1
sS'x(46,K)'
p2688
F1
sS'x(36,D)'
p2689
F0.99999993184761582
sS'x(29,E)'
p2690
F1
sS'x(32,V)'
p2691
F1
sS'x(27,V)'
p2692
F1
sS'x(4,T)'
p2693
F0.99999993184761582
sS'x(9,L)'
p2694
F1
sS'x(10,V)'
p2695
F0.99999979554284657
sS'x(18,D)'
p2696
F1
sS'x(47,E)'
p2697
F1
sS'x(12,A)'
p2698
F1
sS'x(48,Q)'
p2699
F1
sS'x(7,D)'
p2700
F1
sS'x(16,V)'
p2701
F1
sS'x(21,V)'
p2702
F1
sS'x(11,A)'
p2703
F1
sS'x(1,M)'
p2704
F1
sS'x(30,K)'
p2705
F1
sS'x(38,T)'
p2706
F1
sS'x(19,T)'
p2707
F1
sS'x(35,K)'
p2708
F0.99999993184761582
sS'x(49,M)'
p2709
F1
sS'x(31,V)'
p2710
F1
sS'x(44,E)'
p2711
F1
sS'x(2,F)'
p2712
F1
sS'x(15,T)'
p2713
F1
sS'x(40,D)'
p2714
F1
sS'x(22,D)'
p2715
F1
sS'x(13,K)'
p2716
F1
sS'x(41,Y)'
p2717
F1
sS'x(5,A)'
p2718
F1
sS'x(20,L)'
p2719
F1
sS'x(34,A)'
p2720
F1
sS'x(33,G)'
p2721
F1
sS'x(23,A)'
p2722
F1
sS'x(37,A)'
p2723
F1
sS'x(42,L)'
p2724
F1
sS'x(8,K)'
p2725
F1
sS'x(50,R)'
p2726
F1
sS'x(26,T)'
p2727
F1
ssbag2
(g3
g4
NtRp2728
(dp2729
g7
Nsg8
(F26639.14999960073
F-228.17181533848631
tp2730
sg10
(S'D'
S'V'
S'D'
S'A'
S'V'
S'A'
S'M'
S'T'
S'T'
S'K'
S'V'
S'L'
S'V'
S'D'
S'K'
S'E'
S'V'
S'V'
S'D'
S'F'
S'A'
S'T'
S'A'
S'Q'
S'A'
S'K'
S'D'
S'V'
S'T'
S'A'
S'V'
S'K'
S'G'
S'G'
S'K'
S'E'
S'K'
S'T'
S'E'
S'Q'
S'L'
S'D'
S'M'
S'Y'
S'D'
S'A'
S'R'
S'A'
S'D'
S'K'
S'L'
tp2731
sg12
(dp2732
S'x(39,A)'
p2733
F1
sS'x(43,G)'
p2734
F1
sS'x(14,D)'
p2735
F1
sS'x(45,K)'
p2736
F1
sS'x(3,Q)'
p2737
F1
sS'x(17,V)'
p2738
F1
sS'x(51,D)'
p2739
F1
sS'x(28,V)'
p2740
F1
sS'x(25,D)'
p2741
F1
sS'x(24,K)'
p2742
F1
sS'x(6,A)'
p2743
F1
sS'x(46,K)'
p2744
F1
sS'x(36,D)'
p2745
F1
sS'x(29,E)'
p2746
F1
sS'x(32,V)'
p2747
F1
sS'x(27,V)'
p2748
F1
sS'x(4,T)'
p2749
F1
sS'x(9,L)'
p2750
F1
sS'x(10,V)'
p2751
F1
sS'x(18,D)'
p2752
F1
sS'x(47,E)'
p2753
F1
sS'x(12,A)'
p2754
F1
sS'x(48,Q)'
p2755
F1
sS'x(7,D)'
p2756
F1
sS'x(16,V)'
p2757
F1
sS'x(21,V)'
p2758
F1
sS'x(11,A)'
p2759
F1
sS'x(1,M)'
p2760
F1
sS'x(30,K)'
p2761
F1
sS'x(38,T)'
p2762
F1
sS'x(19,T)'
p2763
F1
sS'x(35,K)'
p2764
F1
sS'x(49,M)'
p2765
F1
sS'x(31,V)'
p2766
F1
sS'x(44,E)'
p2767
F1
sS'x(2,F)'
p2768
F1
sS'x(15,T)'
p2769
F1
sS'x(40,D)'
p2770
F1
sS'x(22,D)'
p2771
F1
sS'x(13,K)'
p2772
F1
sS'x(41,Y)'
p2773
F1
sS'x(5,A)'
p2774
F1
sS'x(20,L)'
p2775
F1
sS'x(34,A)'
p2776
F1
sS'x(33,G)'
p2777
F1
sS'x(23,A)'
p2778
F1
sS'x(37,A)'
p2779
F1
sS'x(42,L)'
p2780
F1
sS'x(8,K)'
p2781
F1
sS'x(50,R)'
p2782
F1
sS'x(26,T)'
p2783
F1
ssbag2
(g3
g4
NtRp2784
(dp2785
g7
Nsg8
(F27328.442464058637
F-228.30360754615901
tp2786
sg10
(S'D'
S'A'
S'D'
S'A'
S'V'
S'A'
S'M'
S'T'
S'T'
S'K'
S'V'
S'L'
S'G'
S'V'
S'D'
S'K'
S'E'
S'V'
S'D'
S'F'
S'A'
S'T'
S'A'
S'Q'
S'K'
S'D'
S'V'
S'T'
S'A'
S'V'
S'A'
S'K'
S'G'
S'G'
S'E'
S'K'
S'T'
S'E'
S'Q'
S'L'
S'D'
S'M'
S'Y'
S'K'
S'D'
S'A'
S'R'
S'V'
S'D'
S'K'
S'L'
tp2787
sg12
(dp2788
S'x(39,A)'
p2789
F1
sS'x(43,G)'
p2790
F1
sS'x(14,D)'
p2791
F1
sS'x(10,A)'
p2792
F1
sS'x(3,Q)'
p2793
F1
sS'x(17,V)'
p2794
F1
sS'x(21,G)'
p2795
F1
sS'x(51,D)'
p2796
F1
sS'x(28,V)'
p2797
F1
sS'x(25,D)'
p2798
F1
sS'x(24,K)'
p2799
F1
sS'x(46,K)'
p2800
F1
sS'x(36,D)'
p2801
F1
sS'x(29,E)'
p2802
F1
sS'x(32,V)'
p2803
F1
sS'x(27,V)'
p2804
F1
sS'x(4,T)'
p2805
F1
sS'x(9,L)'
p2806
F1
sS'x(18,D)'
p2807
F1
sS'x(47,E)'
p2808
F1
sS'x(12,A)'
p2809
F1
sS'x(48,Q)'
p2810
F1
sS'x(6,V)'
p2811
F1
sS'x(7,D)'
p2812
F1
sS'x(16,V)'
p2813
F1
sS'x(11,A)'
p2814
F1
sS'x(1,M)'
p2815
F1
sS'x(30,K)'
p2816
F1
sS'x(38,T)'
p2817
F1
sS'x(19,T)'
p2818
F1
sS'x(35,K)'
p2819
F1
sS'x(49,M)'
p2820
F1
sS'x(31,V)'
p2821
F1
sS'x(44,E)'
p2822
F1
sS'x(2,F)'
p2823
F1
sS'x(15,T)'
p2824
F1
sS'x(40,D)'
p2825
F1
sS'x(22,D)'
p2826
F0.99999957419131769
sS'x(13,K)'
p2827
F1
sS'x(41,Y)'
p2828
F1
sS'x(5,A)'
p2829
F1
sS'x(45,K)'
p2830
F1
sS'x(20,L)'
p2831
F1
sS'x(34,A)'
p2832
F1
sS'x(33,G)'
p2833
F1
sS'x(23,A)'
p2834
F1
sS'x(37,A)'
p2835
F1
sS'x(42,L)'
p2836
F1
sS'x(8,K)'
p2837
F1
sS'x(50,R)'
p2838
F1
sS'x(26,T)'
p2839
F1
ssbag2
(g3
g4
NtRp2840
(dp2841
g7
Nsg8
(F27328.444090869816
F-228.30360771785487
tp2842
sg10
(S'D'
S'A'
S'D'
S'A'
S'V'
S'A'
S'M'
S'T'
S'T'
S'K'
S'V'
S'L'
S'G'
S'V'
S'D'
S'K'
S'E'
S'V'
S'D'
S'F'
S'A'
S'T'
S'A'
S'Q'
S'K'
S'D'
S'V'
S'T'
S'A'
S'V'
S'A'
S'K'
S'G'
S'G'
S'E'
S'K'
S'T'
S'E'
S'Q'
S'L'
S'D'
S'M'
S'Y'
S'K'
S'D'
S'A'
S'R'
S'V'
S'D'
S'K'
S'L'
tp2843
sg12
(dp2844
S'x(39,A)'
p2845
F1
sS'x(43,G)'
p2846
F1
sS'x(14,D)'
p2847
F1
sS'x(10,A)'
p2848
F1
sS'x(3,Q)'
p2849
F1
sS'x(17,V)'
p2850
F1
sS'x(21,G)'
p2851
F1
sS'x(51,D)'
p2852
F1
sS'x(28,V)'
p2853
F1
sS'x(25,D)'
p2854
F1
sS'x(24,K)'
p2855
F1
sS'x(46,K)'
p2856
F1
sS'x(36,D)'
p2857
F1
sS'x(29,E)'
p2858
F1
sS'x(32,V)'
p2859
F1
sS'x(27,V)'
p2860
F1
sS'x(4,T)'
p2861
F1
sS'x(9,L)'
p2862
F1
sS'x(18,D)'
p2863
F1
sS'x(47,E)'
p2864
F1
sS'x(12,A)'
p2865
F1
sS'x(48,Q)'
p2866
F1
sS'x(6,V)'
p2867
F1
sS'x(7,D)'
p2868
F1
sS'x(16,V)'
p2869
F1
sS'x(11,A)'
p2870
F1
sS'x(1,M)'
p2871
F1
sS'x(30,K)'
p2872
F1
sS'x(38,T)'
p2873
F1
sS'x(19,T)'
p2874
F1
sS'x(35,K)'
p2875
F1
sS'x(49,M)'
p2876
F1
sS'x(31,V)'
p2877
F1
sS'x(44,E)'
p2878
F1
sS'x(2,F)'
p2879
F1
sS'x(15,T)'
p2880
F1
sS'x(40,D)'
p2881
F1
sS'x(22,D)'
p2882
F1
sS'x(13,K)'
p2883
F1
sS'x(41,Y)'
p2884
F1
sS'x(5,A)'
p2885
F1
sS'x(45,K)'
p2886
F1
sS'x(20,L)'
p2887
F1
sS'x(34,A)'
p2888
F1
sS'x(33,G)'
p2889
F1
sS'x(23,A)'
p2890
F1
sS'x(37,A)'
p2891
F1
sS'x(42,L)'
p2892
F1
sS'x(8,K)'
p2893
F1
sS'x(50,R)'
p2894
F1
sS'x(26,T)'
p2895
F1
ssbag2
(g3
g4
NtRp2896
(dp2897
g7
Nsg8
(F27814.450155659317
F-228.68745143471
tp2898
sg10
(S'D'
S'A'
S'D'
S'A'
S'V'
S'A'
S'M'
S'T'
S'T'
S'K'
S'V'
S'L'
S'G'
S'V'
S'D'
S'K'
S'E'
S'V'
S'D'
S'F'
S'A'
S'T'
S'A'
S'Q'
S'A'
S'K'
S'D'
S'V'
S'L'
S'T'
S'A'
S'K'
S'G'
S'G'
S'E'
S'K'
S'T'
S'E'
S'Q'
S'L'
S'D'
S'M'
S'Y'
S'K'
S'D'
S'A'
S'R'
S'A'
S'D'
S'K'
S'L'
tp2899
sg12
(dp2900
S'x(39,A)'
p2901
F1
sS'x(43,G)'
p2902
F1
sS'x(14,D)'
p2903
F1
sS'x(10,A)'
p2904
F1.0000000000000002
sS'x(3,Q)'
p2905
F1
sS'x(17,V)'
p2906
F1
sS'x(21,G)'
p2907
F1.0000006068946958
sS'x(51,D)'
p2908
F1
sS'x(28,V)'
p2909
F1
sS'x(25,D)'
p2910
F1
sS'x(24,K)'
p2911
F1
sS'x(6,A)'
p2912
F1
sS'x(46,K)'
p2913
F1
sS'x(36,D)'
p2914
F1
sS'x(29,E)'
p2915
F1
sS'x(32,V)'
p2916
F1
sS'x(27,V)'
p2917
F1
sS'x(4,T)'
p2918
F1.0000000000000002
sS'x(9,L)'
p2919
F1
sS'x(18,D)'
p2920
F1
sS'x(47,E)'
p2921
F1
sS'y(A0201,26)'
p2922
F0.96576376543124465
sS'x(12,A)'
p2923
F1
sS'x(48,Q)'
p2924
F1
sS'x(7,D)'
p2925
F1
sS'x(16,V)'
p2926
F1
sS'x(11,A)'
p2927
F1
sS'x(31,L)'
p2928
F1
sS'x(1,M)'
p2929
F1
sS'x(30,K)'
p2930
F1
sS'x(38,T)'
p2931
F1.0000000000000002
sS'x(19,T)'
p2932
F1
sS'x(35,K)'
p2933
F1
sS'x(49,M)'
p2934
F1
sS'x(44,E)'
p2935
F1
sS'x(2,F)'
p2936
F1
sS'x(15,T)'
p2937
F1
sS'x(40,D)'
p2938
F1
sS'x(22,D)'
p2939
F1
sS'x(13,K)'
p2940
F1.0000000000000002
sS'x(41,Y)'
p2941
F1
sS'x(5,A)'
p2942
F1
sS'x(45,K)'
p2943
F1.0000000000000002
sS'x(20,L)'
p2944
F1
sS'x(34,A)'
p2945
F1.0000000000000002
sS'x(33,G)'
p2946
F1
sS'x(23,A)'
p2947
F1
sS'x(37,A)'
p2948
F1
sS'x(42,L)'
p2949
F1
sS'x(8,K)'
p2950
F1
sS'x(50,R)'
p2951
F1
sS'x(26,T)'
p2952
F1.0000000000000002
ssbag2
(g3
g4
NtRp2953
(dp2954
g7
Nsg8
(F27814.451155659313
F-228.6874515051604
tp2955
sg10
(S'D'
S'A'
S'D'
S'A'
S'V'
S'A'
S'M'
S'T'
S'T'
S'K'
S'V'
S'L'
S'G'
S'V'
S'D'
S'K'
S'E'
S'V'
S'D'
S'F'
S'A'
S'T'
S'A'
S'Q'
S'A'
S'K'
S'D'
S'V'
S'L'
S'T'
S'A'
S'K'
S'G'
S'G'
S'E'
S'K'
S'T'
S'E'
S'Q'
S'L'
S'D'
S'M'
S'Y'
S'K'
S'D'
S'A'
S'R'
S'A'
S'D'
S'K'
S'L'
tp2956
sg12
(dp2957
S'x(39,A)'
p2958
F1
sS'x(43,G)'
p2959
F1
sS'x(14,D)'
p2960
F1
sS'x(10,A)'
p2961
F1
sS'x(3,Q)'
p2962
F1
sS'x(17,V)'
p2963
F1
sS'x(21,G)'
p2964
F1
sS'x(51,D)'
p2965
F1
sS'x(28,V)'
p2966
F1
sS'x(25,D)'
p2967
F1
sS'x(24,K)'
p2968
F1
sS'x(6,A)'
p2969
F1
sS'x(46,K)'
p2970
F1
sS'x(36,D)'
p2971
F1
sS'x(29,E)'
p2972
F1
sS'x(32,V)'
p2973
F1
sS'x(27,V)'
p2974
F1
sS'x(4,T)'
p2975
F1
sS'x(9,L)'
p2976
F1
sS'x(18,D)'
p2977
F1
sS'x(47,E)'
p2978
F1
sS'y(A0201,26)'
p2979
F0.96576376543124476
sS'x(12,A)'
p2980
F1
sS'x(48,Q)'
p2981
F1
sS'x(7,D)'
p2982
F1
sS'x(16,V)'
p2983
F1
sS'x(11,A)'
p2984
F1
sS'x(31,L)'
p2985
F1
sS'x(1,M)'
p2986
F1
sS'x(30,K)'
p2987
F1
sS'x(38,T)'
p2988
F1
sS'x(19,T)'
p2989
F1
sS'x(35,K)'
p2990
F1
sS'x(49,M)'
p2991
F1
sS'x(44,E)'
p2992
F1
sS'x(2,F)'
p2993
F1
sS'x(15,T)'
p2994
F1
sS'x(40,D)'
p2995
F1
sS'x(22,D)'
p2996
F1
sS'x(13,K)'
p2997
F1
sS'x(41,Y)'
p2998
F1
sS'x(5,A)'
p2999
F1
sS'x(45,K)'
p3000
F1
sS'x(20,L)'
p3001
F1
sS'x(34,A)'
p3002
F1
sS'x(33,G)'
p3003
F1
sS'x(23,A)'
p3004
F1
sS'x(37,A)'
p3005
F1
sS'x(42,L)'
p3006
F1
sS'x(8,K)'
p3007
F1
sS'x(50,R)'
p3008
F1
sS'x(26,T)'
p3009
F1
ssbag2
(g3
g4
NtRp3010
(dp3011
g7
Nsg8
(F28674.090496829907
F-228.8216680644307
tp3012
sg10
(S'D'
S'A'
S'D'
S'A'
S'V'
S'A'
S'M'
S'T'
S'T'
S'K'
S'V'
S'L'
S'G'
S'V'
S'D'
S'K'
S'E'
S'V'
S'D'
S'F'
S'A'
S'T'
S'A'
S'Q'
S'A'
S'K'
S'D'
S'V'
S'T'
S'A'
S'V'
S'K'
S'G'
S'G'
S'E'
S'K'
S'T'
S'E'
S'Q'
S'E'
S'L'
S'M'
S'Y'
S'K'
S'D'
S'A'
S'R'
S'A'
S'D'
S'K'
S'L'
tp3013
sg12
(dp3014
S'x(39,A)'
p3015
F1
sS'x(43,G)'
p3016
F1
sS'x(14,D)'
p3017
F1
sS'x(10,A)'
p3018
F1
sS'x(3,Q)'
p3019
F1
sS'x(17,V)'
p3020
F1
sS'x(21,G)'
p3021
F0.99999976005994529
sS'x(51,D)'
p3022
F1
sS'x(28,V)'
p3023
F0.99999976005994529
sS'x(25,D)'
p3024
F1
sS'x(24,K)'
p3025
F1
sS'x(6,A)'
p3026
F1
sS'x(40,E)'
p3027
F1
sS'x(46,K)'
p3028
F1
sS'x(36,D)'
p3029
F1
sS'x(29,E)'
p3030
F1
sS'x(32,V)'
p3031
F1
sS'x(27,V)'
p3032
F1
sS'x(4,T)'
p3033
F1
sS'x(9,L)'
p3034
F0.99999988002997264
sS'x(18,D)'
p3035
F1
sS'x(47,E)'
p3036
F1
sS'x(12,A)'
p3037
F1
sS'x(48,Q)'
p3038
F1
sS'x(7,D)'
p3039
F1
sS'x(16,V)'
p3040
F1
sS'x(11,A)'
p3041
F1
sS'x(1,M)'
p3042
F1
sS'x(30,K)'
p3043
F1
sS'x(38,T)'
p3044
F1
sS'x(19,T)'
p3045
F1
sS'x(35,K)'
p3046
F1
sS'x(49,M)'
p3047
F1
sS'x(31,V)'
p3048
F1
sS'x(44,E)'
p3049
F1
sS'x(2,F)'
p3050
F1
sS'x(15,T)'
p3051
F1
sS'x(22,D)'
p3052
F1
sS'x(13,K)'
p3053
F1
sS'x(41,Y)'
p3054
F1
sS'x(5,A)'
p3055
F1
sS'x(45,K)'
p3056
F1
sS'x(20,L)'
p3057
F1
sS'x(34,A)'
p3058
F1
sS'x(33,G)'
p3059
F1
sS'x(23,A)'
p3060
F1
sS'x(37,A)'
p3061
F1
sS'x(42,L)'
p3062
F1
sS'x(8,K)'
p3063
F1
sS'x(50,R)'
p3064
F1
sS'x(26,T)'
p3065
F1
ssbag2
(g3
g4
NtRp3066
(dp3067
g7
Nsg8
(F28674.091496829904
F-228.8216681451886
tp3068
sg10
(S'D'
S'A'
S'D'
S'A'
S'V'
S'A'
S'M'
S'T'
S'T'
S'K'
S'V'
S'L'
S'G'
S'V'
S'D'
S'K'
S'E'
S'V'
S'D'
S'F'
S'A'
S'T'
S'A'
S'Q'
S'A'
S'K'
S'D'
S'V'
S'T'
S'A'
S'V'
S'K'
S'G'
S'G'
S'E'
S'K'
S'T'
S'E'
S'Q'
S'E'
S'L'
S'M'
S'Y'
S'K'
S'D'
S'A'
S'R'
S'A'
S'D'
S'K'
S'L'
tp3069
sg12
(dp3070
S'x(39,A)'
p3071
F1
sS'x(43,G)'
p3072
F1
sS'x(14,D)'
p3073
F1
sS'x(10,A)'
p3074
F1
sS'x(3,Q)'
p3075
F1
sS'x(17,V)'
p3076
F1
sS'x(21,G)'
p3077
F1
sS'x(51,D)'
p3078
F1
sS'x(28,V)'
p3079
F1
sS'x(25,D)'
p3080
F1
sS'x(24,K)'
p3081
F1
sS'x(6,A)'
p3082
F1
sS'x(40,E)'
p3083
F1
sS'x(46,K)'
p3084
F1
sS'x(36,D)'
p3085
F1
sS'x(29,E)'
p3086
F1
sS'x(32,V)'
p3087
F1
sS'x(27,V)'
p3088
F1
sS'x(4,T)'
p3089
F1
sS'x(9,L)'
p3090
F1
sS'x(18,D)'
p3091
F1
sS'x(47,E)'
p3092
F1
sS'x(12,A)'
p3093
F1
sS'x(48,Q)'
p3094
F1
sS'x(7,D)'
p3095
F1
sS'x(16,V)'
p3096
F1
sS'x(11,A)'
p3097
F1
sS'x(1,M)'
p3098
F1
sS'x(30,K)'
p3099
F1
sS'x(38,T)'
p3100
F1
sS'x(19,T)'
p3101
F1
sS'x(35,K)'
p3102
F1
sS'x(49,M)'
p3103
F1
sS'x(31,V)'
p3104
F1
sS'x(44,E)'
p3105
F1
sS'x(2,F)'
p3106
F1
sS'x(15,T)'
p3107
F1
sS'x(22,D)'
p3108
F1
sS'x(13,K)'
p3109
F1
sS'x(41,Y)'
p3110
F1
sS'x(5,A)'
p3111
F1
sS'x(45,K)'
p3112
F1
sS'x(20,L)'
p3113
F1
sS'x(34,A)'
p3114
F1
sS'x(33,G)'
p3115
F1
sS'x(23,A)'
p3116
F1
sS'x(37,A)'
p3117
F1
sS'x(42,L)'
p3118
F1
sS'x(8,K)'
p3119
F1
sS'x(50,R)'
p3120
F1
sS'x(26,T)'
p3121
F1
ssbag2
(g3
g4
NtRp3122
(dp3123
g7
Nsg8
(F29020.251813605297
F-228.881449652079
tp3124
sg10
(S'D'
S'A'
S'D'
S'A'
S'V'
S'A'
S'M'
S'T'
S'T'
S'K'
S'V'
S'L'
S'V'
S'D'
S'K'
S'E'
S'V'
S'V'
S'D'
S'F'
S'A'
S'T'
S'A'
S'Q'
S'A'
S'K'
S'D'
S'V'
S'T'
S'A'
S'V'
S'K'
S'G'
S'G'
S'E'
S'K'
S'T'
S'E'
S'Q'
S'E'
S'L'
S'M'
S'Y'
S'K'
S'D'
S'A'
S'R'
S'A'
S'D'
S'K'
S'L'
tp3125
sg12
(dp3126
S'x(39,A)'
p3127
F1
sS'x(43,G)'
p3128
F1
sS'x(14,D)'
p3129
F1
sS'x(10,A)'
p3130
F1
sS'x(3,Q)'
p3131
F1
sS'x(17,V)'
p3132
F1
sS'x(51,D)'
p3133
F1
sS'x(28,V)'
p3134
F1
sS'x(25,D)'
p3135
F1
sS'x(24,K)'
p3136
F1
sS'x(6,A)'
p3137
F1
sS'x(40,E)'
p3138
F1
sS'x(46,K)'
p3139
F1
sS'x(36,D)'
p3140
F1
sS'x(29,E)'
p3141
F1
sS'x(32,V)'
p3142
F1
sS'x(27,V)'
p3143
F1
sS'x(4,T)'
p3144
F1
sS'x(9,L)'
p3145
F1
sS'x(18,D)'
p3146
F1
sS'x(47,E)'
p3147
F1
sS'x(12,A)'
p3148
F1
sS'x(48,Q)'
p3149
F1
sS'x(7,D)'
p3150
F1
sS'x(16,V)'
p3151
F1
sS'x(21,V)'
p3152
F1
sS'x(11,A)'
p3153
F1
sS'x(1,M)'
p3154
F1
sS'x(30,K)'
p3155
F1
sS'x(38,T)'
p3156
F1
sS'x(19,T)'
p3157
F1
sS'x(35,K)'
p3158
F1
sS'x(49,M)'
p3159
F1
sS'x(31,V)'
p3160
F1
sS'x(44,E)'
p3161
F1
sS'x(2,F)'
p3162
F1
sS'x(15,T)'
p3163
F1
sS'x(22,D)'
p3164
F1
sS'x(13,K)'
p3165
F1
sS'x(41,Y)'
p3166
F1
sS'x(5,A)'
p3167
F1
sS'x(45,K)'
p3168
F1
sS'x(20,L)'
p3169
F1
sS'x(34,A)'
p3170
F1
sS'x(33,G)'
p3171
F1
sS'x(23,A)'
p3172
F1
sS'x(37,A)'
p3173
F1
sS'x(42,L)'
p3174
F1
sS'x(8,K)'
p3175
F1
sS'x(50,R)'
p3176
F1
sS'x(26,T)'
p3177
F1
ssbag2
(g3
g4
NtRp3178
(dp3179
g7
Nsg8
(F29020.252813605301
F-228.881449652079
tp3180
sg10
(S'D'
S'A'
S'D'
S'A'
S'V'
S'A'
S'M'
S'T'
S'T'
S'K'
S'V'
S'L'
S'V'
S'D'
S'K'
S'E'
S'V'
S'V'
S'D'
S'F'
S'A'
S'T'
S'A'
S'Q'
S'A'
S'K'
S'D'
S'V'
S'T'
S'A'
S'V'
S'K'
S'G'
S'G'
S'E'
S'K'
S'T'
S'E'
S'Q'
S'E'
S'L'
S'M'
S'Y'
S'K'
S'D'
S'A'
S'R'
S'A'
S'D'
S'K'
S'L'
tp3181
sg12
(dp3182
S'x(39,A)'
p3183
F1
sS'x(43,G)'
p3184
F1
sS'x(14,D)'
p3185
F1
sS'x(10,A)'
p3186
F1
sS'x(3,Q)'
p3187
F1
sS'x(17,V)'
p3188
F1
sS'x(51,D)'
p3189
F1
sS'x(28,V)'
p3190
F1
sS'x(25,D)'
p3191
F1
sS'x(24,K)'
p3192
F1
sS'x(6,A)'
p3193
F1
sS'x(40,E)'
p3194
F1
sS'x(46,K)'
p3195
F1
sS'x(36,D)'
p3196
F1
sS'x(29,E)'
p3197
F1
sS'x(32,V)'
p3198
F1
sS'x(27,V)'
p3199
F1
sS'x(4,T)'
p3200
F1
sS'x(9,L)'
p3201
F1
sS'x(18,D)'
p3202
F1
sS'x(47,E)'
p3203
F1
sS'x(12,A)'
p3204
F1
sS'x(48,Q)'
p3205
F1
sS'x(7,D)'
p3206
F1
sS'x(16,V)'
p3207
F1
sS'x(21,V)'
p3208
F1
sS'x(11,A)'
p3209
F1
sS'x(1,M)'
p3210
F1
sS'x(30,K)'
p3211
F1
sS'x(38,T)'
p3212
F1
sS'x(19,T)'
p3213
F1
sS'x(35,K)'
p3214
F1
sS'x(49,M)'
p3215
F1
sS'x(31,V)'
p3216
F1
sS'x(44,E)'
p3217
F1
sS'x(2,F)'
p3218
F1
sS'x(15,T)'
p3219
F1
sS'x(22,D)'
p3220
F1
sS'x(13,K)'
p3221
F1
sS'x(41,Y)'
p3222
F1
sS'x(5,A)'
p3223
F1
sS'x(45,K)'
p3224
F1
sS'x(20,L)'
p3225
F1
sS'x(34,A)'
p3226
F1
sS'x(33,G)'
p3227
F1
sS'x(23,A)'
p3228
F1
sS'x(37,A)'
p3229
F1
sS'x(42,L)'
p3230
F1
sS'x(8,K)'
p3231
F1
sS'x(50,R)'
p3232
F1
sS'x(26,T)'
p3233
F1
ssbag2
(g3
g4
NtRp3234
(dp3235
g7
Nsg8
(F30474.051919716232
F-228.93784754077532
tp3236
sg10
(S'D'
S'A'
S'D'
S'A'
S'V'
S'A'
S'M'
S'T'
S'T'
S'K'
S'V'
S'L'
S'D'
S'K'
S'E'
S'V'
S'A'
S'G'
S'F'
S'T'
S'A'
S'T'
S'A'
S'Q'
S'A'
S'K'
S'D'
S'V'
S'T'
S'A'
S'V'
S'K'
S'G'
S'G'
S'E'
S'K'
S'T'
S'E'
S'Q'
S'E'
S'L'
S'M'
S'Y'
S'K'
S'D'
S'A'
S'R'
S'A'
S'D'
S'K'
S'L'
tp3237
sg12
(dp3238
S'x(39,A)'
p3239
F1
sS'x(43,G)'
p3240
F1
sS'x(14,D)'
p3241
F1
sS'x(10,A)'
p3242
F1
sS'x(3,Q)'
p3243
F1
sS'x(17,V)'
p3244
F1
sS'x(51,D)'
p3245
F1
sS'x(25,D)'
p3246
F1
sS'x(33,G)'
p3247
F1
sS'x(24,K)'
p3248
F0.99999996981394712
sS'x(6,A)'
p3249
F1
sS'x(40,E)'
p3250
F0.99999996981394712
sS'x(46,K)'
p3251
F1
sS'x(36,D)'
p3252
F1
sS'x(29,E)'
p3253
F0.99999996981394712
sS'x(32,V)'
p3254
F1
sS'x(27,V)'
p3255
F1
sS'x(4,T)'
p3256
F1
sS'x(9,L)'
p3257
F1
sS'x(18,D)'
p3258
F1
sS'x(47,E)'
p3259
F0.99999996981394712
sS'x(12,A)'
p3260
F1.0000000603721058
sS'y(A1101,16)'
p3261
F0.90749660658135123
sS'x(48,Q)'
p3262
F1
sS'x(7,D)'
p3263
F0.99999996981394712
sS'x(16,V)'
p3264
F1
sS'x(28,A)'
p3265
F0.99999987925578815
sS'x(22,G)'
p3266
F1
sS'x(11,A)'
p3267
F0.99999996981394712
sS'x(1,M)'
p3268
F1
sS'x(30,K)'
p3269
F1
sS'x(38,T)'
p3270
F0.9999999698139469
sS'x(19,T)'
p3271
F1
sS'x(35,K)'
p3272
F1
sS'x(31,V)'
p3273
F1
sS'x(44,E)'
p3274
F0.99999996981394712
sS'x(2,F)'
p3275
F1
sS'x(15,T)'
p3276
F0.99999996981394712
sS'x(49,M)'
p3277
F1
sS'x(13,K)'
p3278
F1
sS'x(41,Y)'
p3279
F1
sS'x(5,A)'
p3280
F1
sS'x(45,K)'
p3281
F0.99999996981394712
sS'x(20,L)'
p3282
F1
sS'x(34,A)'
p3283
F1.0000000301860528
sS'x(50,R)'
p3284
F1
sS'x(23,A)'
p3285
F1
sS'x(37,A)'
p3286
F1.0000000301860528
sS'x(42,L)'
p3287
F1
sS'x(8,K)'
p3288
F0.99999996981394712
sS'x(21,T)'
p3289
F1.0000000301860528
sS'x(26,T)'
p3290
F1
ssbag2
(g3
g4
NtRp3291
(dp3292
g7
Nsg8
(F30474.052919716232
F-228.93784754088847
tp3293
sg10
(S'D'
S'A'
S'D'
S'A'
S'V'
S'A'
S'M'
S'T'
S'T'
S'K'
S'V'
S'L'
S'D'
S'K'
S'E'
S'V'
S'A'
S'G'
S'F'
S'T'
S'A'
S'T'
S'A'
S'Q'
S'A'
S'K'
S'D'
S'V'
S'T'
S'A'
S'V'
S'K'
S'G'
S'G'
S'E'
S'K'
S'T'
S'E'
S'Q'
S'E'
S'L'
S'M'
S'Y'
S'K'
S'D'
S'A'
S'R'
S'A'
S'D'
S'K'
S'L'
tp3294
sg12
(dp3295
S'x(39,A)'
p3296
F1
sS'x(43,G)'
p3297
F1
sS'x(14,D)'
p3298
F1
sS'x(10,A)'
p3299
F1
sS'x(3,Q)'
p3300
F1
sS'x(17,V)'
p3301
F1
sS'x(51,D)'
p3302
F1
sS'x(25,D)'
p3303
F1
sS'x(33,G)'
p3304
F1
sS'x(24,K)'
p3305
F1
sS'x(6,A)'
p3306
F1
sS'x(40,E)'
p3307
F1
sS'x(46,K)'
p3308
F1
sS'x(36,D)'
p3309
F1
sS'x(29,E)'
p3310
F1
sS'x(32,V)'
p3311
F1
sS'x(27,V)'
p3312
F1
sS'x(4,T)'
p3313
F1
sS'x(9,L)'
p3314
F1
sS'x(18,D)'
p3315
F1
sS'x(47,E)'
p3316
F1
sS'x(12,A)'
p3317
F1
sS'y(A1101,16)'
p3318
F0.90749660069836868
sS'x(48,Q)'
p3319
F1
sS'x(7,D)'
p3320
F1
sS'x(16,V)'
p3321
F1
sS'x(28,A)'
p3322
F1
sS'x(22,G)'
p3323
F1
sS'x(11,A)'
p3324
F1
sS'x(1,M)'
p3325
F1
sS'x(30,K)'
p3326
F1
sS'x(38,T)'
p3327
F1
sS'x(19,T)'
p3328
F1
sS'x(35,K)'
p3329
F1
sS'x(31,V)'
p3330
F1
sS'x(44,E)'
p3331
F1
sS'x(2,F)'
p3332
F1
sS'x(15,T)'
p3333
F1
sS'x(49,M)'
p3334
F1
sS'x(13,K)'
p3335
F1
sS'x(41,Y)'
p3336
F1
sS'x(5,A)'
p3337
F1
sS'x(45,K)'
p3338
F1
sS'x(20,L)'
p3339
F1
sS'x(34,A)'
p3340
F1
sS'x(50,R)'
p3341
F1
sS'x(23,A)'
p3342
F1
sS'x(37,A)'
p3343
F1
sS'x(42,L)'
p3344
F1
sS'x(8,K)'
p3345
F1
sS'x(21,T)'
p3346
F1
sS'x(26,T)'
p3347
F1
ssbag2
(g3
g4
NtRp3348
(dp3349
g7
Nsg8
(F30510.489266862434
F-229.10055905735331
tp3350
sg10
(S'D'
S'A'
S'D'
S'A'
S'V'
S'A'
S'M'
S'T'
S'T'
S'K'
S'V'
S'L'
S'V'
S'D'
S'K'
S'E'
S'V'
S'C'
S'D'
S'F'
S'A'
S'T'
S'A'
S'Q'
S'A'
S'K'
S'D'
S'V'
S'L'
S'T'
S'A'
S'K'
S'G'
S'G'
S'E'
S'K'
S'T'
S'E'
S'Q'
S'E'
S'L'
S'M'
S'Y'
S'K'
S'D'
S'A'
S'R'
S'A'
S'D'
S'K'
S'L'
tp3351
sg12
(dp3352
S'x(39,A)'
p3353
F1
sS'x(43,G)'
p3354
F1
sS'x(14,D)'
p3355
F1
sS'x(10,A)'
p3356
F1
sS'x(3,Q)'
p3357
F1
sS'x(17,V)'
p3358
F1
sS'x(51,D)'
p3359
F1
sS'x(28,V)'
p3360
F1
sS'x(25,D)'
p3361
F1
sS'x(24,K)'
p3362
F1
sS'x(6,A)'
p3363
F1
sS'x(40,E)'
p3364
F1
sS'x(46,K)'
p3365
F1
sS'x(36,D)'
p3366
F1
sS'x(29,E)'
p3367
F1
sS'x(32,V)'
p3368
F1
sS'x(27,V)'
p3369
F1
sS'x(4,T)'
p3370
F1
sS'x(9,L)'
p3371
F1
sS'x(18,D)'
p3372
F1
sS'x(47,E)'
p3373
F1
sS'y(A0201,26)'
p3374
F0.96576376543124476
sS'x(12,A)'
p3375
F1
sS'x(48,Q)'
p3376
F1
sS'x(7,D)'
p3377
F1
sS'x(16,V)'
p3378
F1
sS'x(21,C)'
p3379
F1
sS'x(11,A)'
p3380
F1
sS'x(31,L)'
p3381
F1
sS'x(1,M)'
p3382
F1
sS'x(30,K)'
p3383
F1
sS'x(38,T)'
p3384
F1
sS'x(19,T)'
p3385
F1
sS'x(35,K)'
p3386
F1
sS'x(49,M)'
p3387
F1
sS'x(44,E)'
p3388
F1
sS'x(2,F)'
p3389
F1
sS'x(15,T)'
p3390
F1
sS'x(22,D)'
p3391
F0.9999983847670314
sS'x(13,K)'
p3392
F1
sS'x(41,Y)'
p3393
F1
sS'x(5,A)'
p3394
F1
sS'x(45,K)'
p3395
F1
sS'x(20,L)'
p3396
F1
sS'x(34,A)'
p3397
F1
sS'x(33,G)'
p3398
F1
sS'x(23,A)'
p3399
F1
sS'x(37,A)'
p3400
F1
sS'x(42,L)'
p3401
F1
sS'x(8,K)'
p3402
F1
sS'x(50,R)'
p3403
F1
sS'x(26,T)'
p3404
F1
ssbag2
(g3
g4
NtRp3405
(dp3406
g7
Nsg8
(F30510.492675442678
F-229.10055913013633
tp3407
sg10
(S'D'
S'A'
S'D'
S'A'
S'V'
S'A'
S'M'
S'T'
S'T'
S'K'
S'V'
S'L'
S'V'
S'D'
S'K'
S'E'
S'V'
S'C'
S'D'
S'F'
S'A'
S'T'
S'A'
S'Q'
S'A'
S'K'
S'D'
S'V'
S'L'
S'T'
S'A'
S'K'
S'G'
S'G'
S'E'
S'K'
S'T'
S'E'
S'Q'
S'E'
S'L'
S'M'
S'Y'
S'K'
S'D'
S'A'
S'R'
S'A'
S'D'
S'K'
S'L'
tp3408
sg12
(dp3409
S'x(39,A)'
p3410
F1
sS'x(43,G)'
p3411
F1
sS'x(14,D)'
p3412
F1
sS'x(10,A)'
p3413
F1
sS'x(3,Q)'
p3414
F1
sS'x(17,V)'
p3415
F1
sS'x(51,D)'
p3416
F1
sS'x(28,V)'
p3417
F1
sS'x(25,D)'
p3418
F1
sS'x(24,K)'
p3419
F1
sS'x(6,A)'
p3420
F1
sS'x(40,E)'
p3421
F1
sS'x(46,K)'
p3422
F1
sS'x(36,D)'
p3423
F1
sS'x(29,E)'
p3424
F1
sS'x(32,V)'
p3425
F1
sS'x(27,V)'
p3426
F1
sS'x(4,T)'
p3427
F1
sS'x(9,L)'
p3428
F1
sS'x(18,D)'
p3429
F1
sS'x(47,E)'
p3430
F1
sS'y(A0201,26)'
p3431
F0.96576376543124476
sS'x(12,A)'
p3432
F1
sS'x(48,Q)'
p3433
F1
sS'x(7,D)'
p3434
F1
sS'x(16,V)'
p3435
F1
sS'x(21,C)'
p3436
F1
sS'x(11,A)'
p3437
F1
sS'x(31,L)'
p3438
F1
sS'x(1,M)'
p3439
F1
sS'x(30,K)'
p3440
F1
sS'x(38,T)'
p3441
F1
sS'x(19,T)'
p3442
F1
sS'x(35,K)'
p3443
F1
sS'x(49,M)'
p3444
F1
sS'x(44,E)'
p3445
F1
sS'x(2,F)'
p3446
F1
sS'x(15,T)'
p3447
F1
sS'x(22,D)'
p3448
F1
sS'x(13,K)'
p3449
F1
sS'x(41,Y)'
p3450
F1
sS'x(5,A)'
p3451
F1
sS'x(45,K)'
p3452
F1
sS'x(20,L)'
p3453
F1
sS'x(34,A)'
p3454
F1
sS'x(33,G)'
p3455
F1
sS'x(23,A)'
p3456
F1
sS'x(37,A)'
p3457
F1
sS'x(42,L)'
p3458
F1
sS'x(8,K)'
p3459
F1
sS'x(50,R)'
p3460
F1
sS'x(26,T)'
p3461
F1
ssbag2
(g3
g4
NtRp3462
(dp3463
g7
Nsg8
(F31889.47924115623
F-229.4079437224905
tp3464
sg10
(S'D'
S'A'
S'D'
S'A'
S'V'
S'A'
S'M'
S'T'
S'T'
S'K'
S'V'
S'L'
S'V'
S'D'
S'K'
S'E'
S'V'
S'G'
S'F'
S'T'
S'A'
S'T'
S'A'
S'Q'
S'A'
S'K'
S'D'
S'V'
S'T'
S'A'
S'V'
S'K'
S'G'
S'G'
S'E'
S'K'
S'T'
S'E'
S'Q'
S'E'
S'L'
S'M'
S'Y'
S'K'
S'D'
S'A'
S'R'
S'A'
S'D'
S'K'
S'L'
tp3465
sg12
(dp3466
S'x(39,A)'
p3467
F1.0000000016319386
sS'x(43,G)'
p3468
F1
sS'x(14,D)'
p3469
F0.99999996572929406
sS'x(10,A)'
p3470
F1.0000000048958151
sS'x(3,Q)'
p3471
F1
sS'x(17,V)'
p3472
F1.0000000359026444
sS'x(51,D)'
p3473
F1
sS'x(28,V)'
p3474
F0.99999989963578939
sS'x(25,D)'
p3475
F1.0000000008159695
sS'x(33,G)'
p3476
F1.0000000032638767
sS'x(24,K)'
p3477
F1.0000000367186137
sS'x(6,A)'
p3478
F1.0000000016319386
sS'x(40,E)'
p3479
F0.99999989963578939
sS'x(46,K)'
p3480
F0.9999999673612322
sS'x(36,D)'
p3481
F1.0000000016319384
sS'x(29,E)'
p3482
F1.0000000016319384
sS'x(32,V)'
p3483
F0.99999996654526302
sS'x(27,V)'
p3484
F1
sS'x(4,T)'
p3485
F0.99999996899317056
sS'x(9,L)'
p3486
F1.0000000016319384
sS'x(18,D)'
p3487
F1.0000000040798462
sS'x(47,E)'
p3488
F1.0000000016319384
sS'x(12,A)'
p3489
F0.9999999673612322
sS'y(A1101,16)'
p3490
F0.90749679629556324
sS'x(48,Q)'
p3491
F1
sS'x(7,D)'
p3492
F0.99999996899317078
sS'x(16,V)'
p3493
F1.0000000032638767
sS'x(22,G)'
p3494
F1
sS'x(11,A)'
p3495
F0.99999996899317078
sS'x(1,M)'
p3496
F1
sS'x(30,K)'
p3497
F1
sS'x(38,T)'
p3498
F1.0000000016319384
sS'x(19,T)'
p3499
F1.0000000016319384
sS'x(35,K)'
p3500
F0.9999999673612322
sS'x(31,V)'
p3501
F1
sS'x(44,E)'
p3502
F1
sS'x(2,F)'
p3503
F1
sS'x(15,T)'
p3504
F1.0000000024479079
sS'x(49,M)'
p3505
F1
sS'x(13,K)'
p3506
F0.99999996572929406
sS'x(41,Y)'
p3507
F1.0000000032638772
sS'x(5,A)'
p3508
F1.0000000016319384
sS'x(45,K)'
p3509
F1.0000000032638772
sS'x(20,L)'
p3510
F1.0000000016319384
sS'x(34,A)'
p3511
F0.99999996736123242
sS'x(50,R)'
p3512
F1
sS'x(23,A)'
p3513
F1.0000000367186139
sS'x(37,A)'
p3514
F1.0000000016319384
sS'x(42,L)'
p3515
F1.0000000016319384
sS'x(8,K)'
p3516
F0.99999996572929406
sS'x(21,T)'
p3517
F1.0000000073437227
sS'x(26,T)'
p3518
F1.0000000367186137
ssbag2
(g3
g4
NtRp3519
(dp3520
g7
Nsg8
(F31889.480241156234
F-229.40794372250093
tp3521
sg10
(S'D'
S'A'
S'D'
S'A'
S'V'
S'A'
S'M'
S'T'
S'T'
S'K'
S'V'
S'L'
S'V'
S'D'
S'K'
S'E'
S'V'
S'G'
S'F'
S'T'
S'A'
S'T'
S'A'
S'Q'
S'A'
S'K'
S'D'
S'V'
S'T'
S'A'
S'V'
S'K'
S'G'
S'G'
S'E'
S'K'
S'T'
S'E'
S'Q'
S'E'
S'L'
S'M'
S'Y'
S'K'
S'D'
S'A'
S'R'
S'A'
S'D'
S'K'
S'L'
tp3522
sg12
(dp3523
S'x(39,A)'
p3524
F1
sS'x(43,G)'
p3525
F1
sS'x(14,D)'
p3526
F1
sS'x(10,A)'
p3527
F1
sS'x(3,Q)'
p3528
F1
sS'x(17,V)'
p3529
F1
sS'x(51,D)'
p3530
F1
sS'x(28,V)'
p3531
F1
sS'x(25,D)'
p3532
F1
sS'x(33,G)'
p3533
F1
sS'x(24,K)'
p3534
F1
sS'x(6,A)'
p3535
F1
sS'x(40,E)'
p3536
F1
sS'x(46,K)'
p3537
F1
sS'x(36,D)'
p3538
F1
sS'x(29,E)'
p3539
F1
sS'x(32,V)'
p3540
F1
sS'x(27,V)'
p3541
F1
sS'x(4,T)'
p3542
F1
sS'x(9,L)'
p3543
F1
sS'x(18,D)'
p3544
F1
sS'x(47,E)'
p3545
F1
sS'x(12,A)'
p3546
F1
sS'y(A1101,16)'
p3547
F0.90749660069836879
sS'x(48,Q)'
p3548
F1
sS'x(7,D)'
p3549
F1
sS'x(16,V)'
p3550
F1
sS'x(22,G)'
p3551
F1
sS'x(11,A)'
p3552
F1
sS'x(1,M)'
p3553
F1
sS'x(30,K)'
p3554
F1
sS'x(38,T)'
p3555
F1
sS'x(19,T)'
p3556
F1
sS'x(35,K)'
p3557
F1
sS'x(31,V)'
p3558
F1
sS'x(44,E)'
p3559
F1
sS'x(2,F)'
p3560
F1
sS'x(15,T)'
p3561
F1
sS'x(49,M)'
p3562
F1
sS'x(13,K)'
p3563
F1
sS'x(41,Y)'
p3564
F1
sS'x(5,A)'
p3565
F1
sS'x(45,K)'
p3566
F1
sS'x(20,L)'
p3567
F1
sS'x(34,A)'
p3568
F1
sS'x(50,R)'
p3569
F1
sS'x(23,A)'
p3570
F1
sS'x(37,A)'
p3571
F1
sS'x(42,L)'
p3572
F1
sS'x(8,K)'
p3573
F1
sS'x(21,T)'
p3574
F1
sS'x(26,T)'
p3575
F1
ssbag2
(g3
g4
NtRp3576
(dp3577
g7
Nsg8
(F32990.644953389332
F-229.84959161939332
tp3578
sg10
(S'D'
S'A'
S'D'
S'A'
S'V'
S'A'
S'M'
S'T'
S'T'
S'K'
S'V'
S'L'
S'G'
S'V'
S'D'
S'K'
S'S'
S'E'
S'V'
S'F'
S'A'
S'T'
S'A'
S'Q'
S'A'
S'K'
S'D'
S'V'
S'L'
S'T'
S'A'
S'K'
S'G'
S'G'
S'E'
S'E'
S'T'
S'E'
S'Q'
S'K'
S'L'
S'M'
S'Y'
S'K'
S'D'
S'A'
S'R'
S'A'
S'D'
S'K'
S'L'
tp3579
sg12
(dp3580
S'x(39,A)'
p3581
F1
sS'x(43,G)'
p3582
F1
sS'x(14,D)'
p3583
F1
sS'x(10,A)'
p3584
F1
sS'x(3,Q)'
p3585
F1
sS'x(17,V)'
p3586
F1
sS'x(21,G)'
p3587
F1
sS'x(51,D)'
p3588
F1
sS'x(28,V)'
p3589
F1
sS'x(25,D)'
p3590
F1
sS'x(24,K)'
p3591
F1
sS'x(6,A)'
p3592
F1
sS'x(22,S)'
p3593
F1
sS'x(40,E)'
p3594
F1
sS'x(36,D)'
p3595
F1
sS'x(29,E)'
p3596
F1
sS'x(32,V)'
p3597
F1
sS'x(27,V)'
p3598
F1
sS'x(4,T)'
p3599
F1
sS'x(9,L)'
p3600
F1
sS'x(18,D)'
p3601
F1
sS'x(47,E)'
p3602
F1
sS'y(A0201,26)'
p3603
F0.96576376543124476
sS'x(12,A)'
p3604
F1
sS'x(48,Q)'
p3605
F1
sS'x(7,D)'
p3606
F1
sS'x(16,V)'
p3607
F1
sS'x(11,A)'
p3608
F1
sS'x(31,L)'
p3609
F1
sS'x(1,M)'
p3610
F1
sS'x(30,K)'
p3611
F1
sS'x(38,T)'
p3612
F1
sS'x(19,T)'
p3613
F1
sS'x(35,K)'
p3614
F1
sS'x(46,K)'
p3615
F1
sS'x(44,E)'
p3616
F1
sS'x(2,F)'
p3617
F1
sS'x(15,T)'
p3618
F1
sS'x(49,M)'
p3619
F1
sS'x(13,K)'
p3620
F1
sS'x(41,Y)'
p3621
F1
sS'x(5,A)'
p3622
F1
sS'x(45,K)'
p3623
F1
sS'x(20,L)'
p3624
F1
sS'x(34,A)'
p3625
F1
sS'x(33,G)'
p3626
F1
sS'x(23,A)'
p3627
F1
sS'x(37,A)'
p3628
F1
sS'x(42,L)'
p3629
F1
sS'x(8,K)'
p3630
F1
sS'x(50,R)'
p3631
F1
sS'x(26,T)'
p3632
F1
ssbag2
(g3
g4
NtRp3633
(dp3634
g7
Nsg8
(F32990.645953389321
F-229.84959161939332
tp3635
sg10
(S'D'
S'A'
S'D'
S'A'
S'V'
S'A'
S'M'
S'T'
S'T'
S'K'
S'V'
S'L'
S'G'
S'V'
S'D'
S'K'
S'S'
S'E'
S'V'
S'F'
S'A'
S'T'
S'A'
S'Q'
S'A'
S'K'
S'D'
S'V'
S'L'
S'T'
S'A'
S'K'
S'G'
S'G'
S'E'
S'E'
S'T'
S'E'
S'Q'
S'K'
S'L'
S'M'
S'Y'
S'K'
S'D'
S'A'
S'R'
S'A'
S'D'
S'K'
S'L'
tp3636
sg12
(dp3637
S'x(39,A)'
p3638
F1
sS'x(43,G)'
p3639
F1
sS'x(14,D)'
p3640
F1
sS'x(10,A)'
p3641
F1
sS'x(3,Q)'
p3642
F1
sS'x(17,V)'
p3643
F1
sS'x(21,G)'
p3644
F1
sS'x(51,D)'
p3645
F1
sS'x(28,V)'
p3646
F1
sS'x(25,D)'
p3647
F1
sS'x(24,K)'
p3648
F1
sS'x(6,A)'
p3649
F1
sS'x(22,S)'
p3650
F1
sS'x(40,E)'
p3651
F1
sS'x(36,D)'
p3652
F1
sS'x(29,E)'
p3653
F1
sS'x(32,V)'
p3654
F1
sS'x(27,V)'
p3655
F1
sS'x(4,T)'
p3656
F1
sS'x(9,L)'
p3657
F1
sS'x(18,D)'
p3658
F1
sS'x(47,E)'
p3659
F1
sS'y(A0201,26)'
p3660
F0.96576376543124476
sS'x(12,A)'
p3661
F1
sS'x(48,Q)'
p3662
F1
sS'x(7,D)'
p3663
F1
sS'x(16,V)'
p3664
F1
sS'x(11,A)'
p3665
F1
sS'x(31,L)'
p3666
F1
sS'x(1,M)'
p3667
F1
sS'x(30,K)'
p3668
F1
sS'x(38,T)'
p3669
F1
sS'x(19,T)'
p3670
F1
sS'x(35,K)'
p3671
F1
sS'x(46,K)'
p3672
F1
sS'x(44,E)'
p3673
F1
sS'x(2,F)'
p3674
F1
sS'x(15,T)'
p3675
F1
sS'x(49,M)'
p3676
F1
sS'x(13,K)'
p3677
F1
sS'x(41,Y)'
p3678
F1
sS'x(5,A)'
p3679
F1
sS'x(45,K)'
p3680
F1
sS'x(20,L)'
p3681
F1
sS'x(34,A)'
p3682
F1
sS'x(33,G)'
p3683
F1
sS'x(23,A)'
p3684
F1
sS'x(37,A)'
p3685
F1
sS'x(42,L)'
p3686
F1
sS'x(8,K)'
p3687
F1
sS'x(50,R)'
p3688
F1
sS'x(26,T)'
p3689
F1
ssbag2
(g3
g4
NtRp3690
(dp3691
g7
Nsg8
(F36590.723951039057
F-230.06149438704594
tp3692
sg10
(S'D'
S'A'
S'D'
S'A'
S'V'
S'A'
S'M'
S'T'
S'T'
S'K'
S'V'
S'L'
S'V'
S'D'
S'K'
S'S'
S'E'
S'V'
S'F'
S'T'
S'A'
S'T'
S'A'
S'Q'
S'A'
S'K'
S'D'
S'V'
S'L'
S'T'
S'A'
S'K'
S'G'
S'G'
S'E'
S'E'
S'T'
S'E'
S'Q'
S'K'
S'L'
S'M'
S'Y'
S'K'
S'D'
S'A'
S'R'
S'A'
S'D'
S'K'
S'L'
tp3693
sg12
(dp3694
S'x(39,A)'
p3695
F1
sS'x(43,G)'
p3696
F1
sS'x(14,D)'
p3697
F1
sS'x(10,A)'
p3698
F1
sS'x(3,Q)'
p3699
F1
sS'x(17,V)'
p3700
F1
sS'x(51,D)'
p3701
F1
sS'x(28,V)'
p3702
F1
sS'x(25,D)'
p3703
F1
sS'x(24,K)'
p3704
F1
sS'x(6,A)'
p3705
F1
sS'x(22,S)'
p3706
F1
sS'x(40,E)'
p3707
F1
sS'x(36,D)'
p3708
F1
sS'x(29,E)'
p3709
F1
sS'x(32,V)'
p3710
F1
sS'x(27,V)'
p3711
F1
sS'x(4,T)'
p3712
F1
sS'x(9,L)'
p3713
F1
sS'x(18,D)'
p3714
F1
sS'x(47,E)'
p3715
F1
sS'y(A0201,26)'
p3716
F0.96576376543124476
sS'x(12,A)'
p3717
F1
sS'x(48,Q)'
p3718
F1
sS'x(7,D)'
p3719
F1
sS'x(16,V)'
p3720
F1
sS'y(A0201,15)'
p3721
F0.97659554274871152
sS'x(33,G)'
p3722
F1
sS'x(11,A)'
p3723
F1
sS'x(31,L)'
p3724
F1
sS'x(1,M)'
p3725
F1
sS'x(30,K)'
p3726
F1
sS'x(38,T)'
p3727
F1
sS'x(19,T)'
p3728
F1
sS'x(35,K)'
p3729
F1
sS'x(46,K)'
p3730
F1
sS'x(44,E)'
p3731
F1
sS'x(2,F)'
p3732
F1
sS'x(15,T)'
p3733
F1
sS'x(49,M)'
p3734
F1
sS'x(13,K)'
p3735
F1
sS'x(41,Y)'
p3736
F1
sS'x(5,A)'
p3737
F1
sS'x(45,K)'
p3738
F1
sS'x(20,L)'
p3739
F1
sS'x(34,A)'
p3740
F1
sS'x(50,R)'
p3741
F1
sS'x(23,A)'
p3742
F1
sS'x(37,A)'
p3743
F1
sS'x(42,L)'
p3744
F1
sS'x(8,K)'
p3745
F1
sS'x(21,T)'
p3746
F1
sS'x(26,T)'
p3747
F1
ssba.